(dp0
S'BE'
p1
(lp2
S'BO'
p3
aS'BU'
p4
aS'BU'
p5
aS'BY'
p6
aS'CE'
p7
aS'DE'
p8
aS'FE'
p9
aS'GE'
p10
aS'GE'
p11
aS'HE'
p12
aS'IE'
p13
aS'ME'
p14
aS'NE'
p15
aS'OE'
p16
aS'RE'
p17
aS'SE'
p18
aS'TE'
p19
aS'WE'
p20
aS'YE'
p21
asg20
(lp22
S'WI'
p23
aS'WO'
p24
aS'WU'
p25
aS'WY'
p26
ag21
asS'BA'
p27
(lp28
g1
ag3
ag4
ag5
ag6
aS'CA'
p29
aS'DA'
p30
aS'EA'
p31
aS'FA'
p32
aS'GA'
p33
aS'GA'
p34
aS'HA'
p35
aS'KA'
p36
aS'LA'
p37
aS'MA'
p38
aS'MA'
p39
aS'NA'
p40
aS'PA'
p41
aS'RA'
p42
aS'SA'
p43
aS'TA'
p44
aS'WA'
p45
aS'WA'
p46
aS'YA'
p47
aS'ZA'
p48
asg45
(lp49
g20
ag23
ag24
ag25
ag26
ag47
ag48
asg24
(lp50
g25
ag26
aS'YO'
p51
aS'ZO'
p52
asS'JU'
p53
(lp54
S'LU'
p55
aS'MU'
p56
aS'NU'
p57
aS'PU'
p58
aS'TU'
p59
aS'VU'
p60
ag25
asg3
(lp61
g4
ag5
ag6
aS'DO'
p62
aS'FO'
p63
aS'GO'
p64
aS'HO'
p65
aS'HO'
p66
aS'IO'
p67
aS'IO'
p68
aS'JO'
p69
aS'JO'
p70
aS'KO'
p71
aS'KO'
p72
aS'LO'
p73
aS'LO'
p74
aS'MO'
p75
aS'MO'
p76
aS'NO'
p77
aS'NO'
p78
aS'PO'
p79
aS'PO'
p80
aS'RO'
p81
aS'SO'
p82
aS'TO'
p83
ag24
ag51
ag52
asg23
(lp84
g24
ag25
ag26
aS'XI'
p85
asg4
(lp86
g6
aS'EU'
p87
aS'FU'
p88
aS'HU'
p89
ag53
ag55
ag56
ag57
ag58
ag59
ag60
ag25
asg25
(lp90
g26
asg69
(lp91
g53
ag71
ag72
ag73
ag74
ag75
ag76
ag77
ag78
ag79
ag80
ag81
ag82
ag83
ag24
ag51
ag52
asS'JI'
p92
(lp93
g69
ag70
ag53
aS'LI'
p94
aS'MI'
p95
aS'NI'
p96
aS'PI'
p97
aS'SI'
p98
aS'TI'
p99
aS'TI'
p100
ag23
ag85
asg6
(lp101
S'EY'
p102
aS'HY'
p103
aS'LY'
p104
aS'MY'
p105
ag26
asg26
(lp106
sg88
(lp107
g89
ag53
ag55
ag56
ag57
ag58
ag59
ag60
ag25
asg17
(lp108
g81
ag18
ag19
ag20
ag21
asg42
(lp109
g17
ag81
ag43
ag44
ag45
ag46
ag47
ag48
asg81
(lp110
g82
ag83
ag24
ag51
ag52
asg10
(lp111
S'GI'
p112
ag64
ag12
ag13
ag14
ag15
ag16
ag17
ag18
ag19
ag20
ag21
asg33
(lp113
g10
ag11
ag112
ag64
ag35
ag36
ag37
ag38
ag39
ag40
ag41
ag42
ag43
ag44
ag45
ag46
ag47
ag48
asg64
(lp114
g65
ag66
ag67
ag68
ag69
ag70
ag71
ag72
ag73
ag74
ag75
ag76
ag77
ag78
ag79
ag80
ag81
ag82
ag83
ag24
ag51
ag52
asg112
(lp115
g64
aS'HI'
p116
ag92
ag94
ag95
ag96
ag97
ag98
ag99
ag100
ag23
ag85
asS'ON'
p117
(lp118
S'OR'
p119
aS'OS'
p120
aS'OS'
p121
aS'OW'
p122
aS'OX'
p123
aS'UN'
p124
aS'YN'
p125
asS'OM'
p126
(lp127
g117
ag119
ag120
ag121
ag122
ag123
aS'UM'
p128
aS'YM'
p129
asS'OK'
p130
(lp131
g126
ag117
ag119
ag120
ag121
ag122
ag123
asS'OH'
p132
(lp133
g130
ag126
ag117
ag119
ag120
ag121
ag122
ag123
aS'SH'
p134
aS'TH'
p135
asS'OG'
p136
(lp137
g132
ag130
ag126
ag117
ag119
ag120
ag121
ag122
ag123
aS'UG'
p138
asS'OF'
p139
(lp140
g136
ag132
ag130
ag126
ag117
ag119
ag120
ag121
ag122
ag123
asg16
(lp141
g139
ag136
ag132
ag130
ag126
ag117
ag119
ag120
ag121
ag122
ag123
ag17
ag18
ag19
ag20
ag21
asS'OD'
p142
(lp143
g16
ag139
ag136
ag132
ag130
ag126
ag117
ag119
ag120
ag121
ag122
ag123
aS'TD'
p144
aS'UD'
p145
asg79
(lp146
g58
ag81
ag82
ag83
ag24
ag51
ag52
asg123
(lp147
sg122
(lp148
g123
asg44
(lp149
g144
ag19
ag135
ag99
ag100
ag83
ag59
ag45
ag46
ag47
ag48
asg120
(lp150
g122
ag123
aS'US'
p151
asg119
(lp152
g120
ag121
ag122
ag123
aS'UR'
p153
aS'YR'
p154
asg103
(lp155
g104
ag105
ag26
asg89
(lp156
g103
ag53
ag55
ag56
ag57
ag58
ag59
ag60
ag25
asg116
(lp157
g65
ag66
ag89
ag103
ag92
ag94
ag95
ag96
ag97
ag98
ag99
ag100
ag23
ag85
asg65
(lp158
g89
ag103
ag67
ag68
ag69
ag70
ag71
ag72
ag73
ag74
ag75
ag76
ag77
ag78
ag79
ag80
ag81
ag82
ag83
ag24
ag51
ag52
asg35
(lp159
g12
ag116
ag65
ag66
ag89
ag103
ag36
ag37
ag38
ag39
ag40
ag41
ag42
ag43
ag44
ag45
ag46
ag47
ag48
asg12
(lp160
g116
ag65
ag66
ag89
ag103
ag13
ag14
ag15
ag16
ag17
ag18
ag19
ag20
ag21
asg58
(lp161
g59
ag60
ag25
asg41
(lp162
g97
ag79
ag80
ag58
ag42
ag43
ag44
ag45
ag46
ag47
ag48
asg97
(lp163
g79
ag80
ag58
ag98
ag99
ag100
ag23
ag85
asS'AK'
p164
(lp165
S'AL'
p166
aS'AL'
p167
aS'AM'
p168
aS'AN'
p169
aS'AO'
p170
aS'AR'
p171
aS'AS'
p172
aS'AS'
p173
aS'AT'
p174
aS'AW'
p175
aS'AX'
p176
aS'AY'
p177
aS'AY'
p178
ag130
asS'EM'
p179
(lp180
S'EN'
p181
aS'ER'
p182
aS'ES'
p183
ag87
aS'EX'
p184
ag102
ag126
ag128
ag129
asS'EL'
p185
(lp186
g179
aS'EM'
p187
ag181
ag182
ag183
ag87
ag184
ag102
asg181
(lp188
g182
ag183
ag87
ag184
ag102
aS'IN'
p189
ag117
ag124
ag125
asS'EH'
p190
(lp191
g185
ag179
ag187
ag181
ag182
ag183
ag87
ag184
ag102
ag132
ag134
ag135
asS'ED'
p192
(lp193
g190
ag185
ag179
ag187
ag181
ag182
ag183
ag87
ag184
ag102
aS'ID'
p194
ag142
aS'OD'
p195
ag144
ag145
asg31
(lp196
g192
ag190
ag185
ag179
ag187
ag181
ag182
ag183
ag87
ag184
ag102
ag32
ag33
ag34
ag35
ag36
ag37
ag38
ag39
ag40
ag41
ag42
ag43
ag44
ag45
ag46
ag47
ag48
asg48
(lp197
g52
asS'IT'
p198
(lp199
S'ST'
p200
aS'UT'
p201
asg102
(lp202
g103
ag104
ag105
ag26
asg184
(lp203
g102
ag123
asg87
(lp204
g184
ag102
ag88
ag89
ag53
ag55
ag56
ag57
ag58
ag59
ag60
ag25
asg183
(lp205
g87
ag184
ag102
aS'IS'
p206
ag120
ag121
ag151
asg182
(lp207
g183
ag87
ag184
ag102
aS'MR'
p208
ag119
ag153
ag154
asg14
(lp209
g95
ag75
ag76
ag208
ag56
ag105
ag15
ag16
ag17
ag18
ag19
ag20
ag21
asg38
(lp210
g14
ag95
ag75
ag76
ag208
ag56
ag105
ag40
ag41
ag42
ag43
ag44
ag45
ag46
ag47
ag48
asg201
(lp211
sg75
(lp212
g208
ag56
ag105
ag77
ag78
ag79
ag80
ag81
ag82
ag83
ag24
ag51
ag52
asg95
(lp213
g75
ag76
ag208
ag56
ag105
ag96
ag97
ag98
ag99
ag100
ag23
ag85
asS'UP'
p214
(lp215
g153
ag151
ag201
asg151
(lp216
g201
asg153
(lp217
g151
ag201
ag154
asg56
(lp218
g105
ag57
ag58
ag59
ag60
ag25
asg124
(lp219
g214
ag153
ag151
ag201
ag125
asg208
(lp220
g56
ag105
ag119
ag153
ag154
asg145
(lp221
g138
ag128
ag124
ag214
ag153
ag151
ag201
asg138
(lp222
g128
ag124
ag214
ag153
ag151
ag201
asg105
(lp223
g26
asg60
(lp224
g25
asg175
(lp225
g176
ag177
ag178
ag122
asg32
(lp226
g9
aS'FI'
p227
ag63
ag88
ag33
ag34
ag35
ag36
ag37
ag38
ag39
ag40
ag41
ag42
ag43
ag44
ag45
ag46
ag47
ag48
asg9
(lp228
g227
ag63
ag88
ag10
ag11
ag12
ag13
ag14
ag15
ag16
ag17
ag18
ag19
ag20
ag21
asg227
(lp229
g63
ag88
ag112
ag116
ag92
ag94
ag95
ag96
ag97
ag98
ag99
ag100
ag23
ag85
asg63
(lp230
g88
ag64
ag65
ag66
ag67
ag68
ag69
ag70
ag71
ag72
ag73
ag74
ag75
ag76
ag77
ag78
ag79
ag80
ag81
ag82
ag83
ag24
ag51
ag52
asg96
(lp231
g77
ag78
ag57
ag97
ag98
ag99
ag100
ag23
ag85
asg77
(lp232
g57
ag79
ag80
ag81
ag82
ag83
ag24
ag51
ag52
asg40
(lp233
g15
ag96
ag77
ag78
ag57
ag41
ag42
ag43
ag44
ag45
ag46
ag47
ag48
asg125
(lp234
g51
ag154
asg15
(lp235
g96
ag77
ag78
ag57
ag16
ag17
ag18
ag19
ag20
ag21
asg57
(lp236
g58
ag59
ag60
ag25
asg85
(lp237
sg29
(lp238
g7
ag30
ag31
ag32
ag33
ag34
ag35
ag36
ag37
ag38
ag39
ag40
ag41
ag42
ag43
ag44
ag45
ag46
ag47
ag48
asg7
(lp239
g8
ag9
ag10
ag11
ag12
ag13
ag14
ag15
ag16
ag17
ag18
ag19
ag20
ag21
asg36
(lp240
g71
ag72
ag37
ag38
ag39
ag40
ag41
ag42
ag43
ag44
ag45
ag46
ag47
ag48
asg71
(lp241
g73
ag74
ag75
ag76
ag77
ag78
ag79
ag80
ag81
ag82
ag83
ag24
ag51
ag52
asg200
(lp242
g201
asg98
(lp243
g82
ag200
ag99
ag100
ag23
ag85
asg134
(lp244
g98
ag82
ag200
ag135
asg82
(lp245
g200
ag83
ag24
ag51
ag52
asg43
(lp246
g18
ag134
ag98
ag82
ag200
ag44
ag45
ag46
ag47
ag48
asg18
(lp247
g134
ag98
ag82
ag200
ag19
ag20
ag21
asg62
(lp248
g63
ag64
ag65
ag66
ag67
ag68
ag69
ag70
ag71
ag72
ag73
ag74
ag75
ag76
ag77
ag78
ag79
ag80
ag81
ag82
ag83
ag24
ag51
ag52
asg129
(lp249
g125
ag51
ag154
asg51
(lp250
g154
ag52
asS'DI'
p251
(lp252
g62
ag227
ag112
ag116
ag92
ag94
ag95
ag96
ag97
ag98
ag99
ag100
ag23
ag85
asg47
(lp253
g21
ag129
ag125
ag51
ag154
ag48
asg8
(lp254
g251
ag62
ag9
ag10
ag11
ag12
ag13
ag14
ag15
ag16
ag17
ag18
ag19
ag20
ag21
asg21
(lp255
g129
ag125
ag51
ag154
asg30
(lp256
g8
ag251
ag62
ag31
ag32
ag33
ag34
ag35
ag36
ag37
ag38
ag39
ag40
ag41
ag42
ag43
ag44
ag45
ag46
ag47
ag48
asg154
(lp257
sg128
(lp258
g124
ag214
ag153
ag151
ag201
ag129
asg37
(lp259
g94
ag73
ag74
ag55
ag104
ag38
ag39
ag40
ag41
ag42
ag43
ag44
ag45
ag46
ag47
ag48
asg73
(lp260
g55
ag104
ag75
ag76
ag77
ag78
ag79
ag80
ag81
ag82
ag83
ag24
ag51
ag52
asg59
(lp261
g60
ag25
asg94
(lp262
g73
ag74
ag55
ag104
ag95
ag96
ag97
ag98
ag99
ag100
ag23
ag85
asg83
(lp263
g59
ag24
ag51
ag52
asg55
(lp264
g104
ag56
ag57
ag58
ag59
ag60
ag25
asg135
(lp265
g99
ag100
ag83
ag59
asg99
(lp266
g83
ag59
ag23
ag85
asg144
(lp267
g19
ag135
ag99
ag100
ag83
ag59
ag145
asg19
(lp268
g135
ag99
ag100
ag83
ag59
ag20
ag21
asg104
(lp269
g105
ag26
asS'AA'
p270
(lp271
S'AB'
p272
aS'AD'
p273
aS'AE'
p274
aS'AH'
p275
aS'AH'
p276
aS'AI'
p277
ag164
ag166
ag167
ag168
ag169
ag170
ag171
ag172
ag173
ag174
ag175
ag176
ag177
ag178
ag27
ag29
ag30
ag31
ag32
ag33
ag34
ag35
ag36
ag37
ag38
ag39
ag40
ag41
ag42
ag43
ag44
ag45
ag46
ag47
ag48
asg272
(lp278
g273
ag274
ag275
ag276
ag277
ag164
ag166
ag167
ag168
ag169
ag170
ag171
ag172
ag173
ag174
ag175
ag176
ag177
ag178
asg274
(lp279
g275
ag276
ag277
ag164
ag166
ag167
ag168
ag169
ag170
ag171
ag172
ag173
ag174
ag175
ag176
ag177
ag178
ag1
ag7
ag8
ag9
ag10
ag11
ag12
ag13
ag14
ag15
ag16
ag17
ag18
ag19
ag20
ag21
asg273
(lp280
g274
ag275
ag276
ag277
ag164
ag166
ag167
ag168
ag169
ag170
ag171
ag172
ag173
ag174
ag175
ag176
ag177
ag178
ag192
ag194
ag142
ag195
ag144
ag145
asg277
(lp281
g164
ag166
ag167
ag168
ag169
ag170
ag171
ag172
ag173
ag174
ag175
ag176
ag177
ag178
ag251
ag227
ag112
ag116
ag92
ag94
ag95
ag96
ag97
ag98
ag99
ag100
ag23
ag85
asg275
(lp282
g277
ag164
ag166
ag167
ag168
ag169
ag170
ag171
ag172
ag173
ag174
ag175
ag176
ag177
ag178
ag190
ag132
ag134
ag135
asg206
(lp283
g198
ag120
ag121
ag151
asg168
(lp284
g169
ag170
ag171
ag172
ag173
ag174
ag175
ag176
ag177
ag178
ag179
ag187
ag126
ag128
ag129
asg166
(lp285
g168
ag169
ag170
ag171
ag172
ag173
ag174
ag175
ag176
ag177
ag178
ag185
asg170
(lp286
g171
ag172
ag173
ag174
ag175
ag176
ag177
ag178
ag3
ag62
ag63
ag64
ag65
ag66
ag67
ag68
ag69
ag70
ag71
ag72
ag73
ag74
ag75
ag76
ag77
ag78
ag79
ag80
ag81
ag82
ag83
ag24
ag51
ag52
asg169
(lp287
g170
ag171
ag172
ag173
ag174
ag175
ag176
ag177
ag178
ag181
ag189
ag117
ag124
ag125
asg172
(lp288
g174
ag175
ag176
ag177
ag178
ag183
ag206
ag120
ag121
ag151
asg171
(lp289
g172
ag173
ag174
ag175
ag176
ag177
ag178
ag182
ag208
ag119
ag153
ag154
asg174
(lp290
g175
ag176
ag177
ag178
ag198
ag200
ag201
asg67
(lp291
g206
ag198
ag69
ag70
ag71
ag72
ag73
ag74
ag75
ag76
ag77
ag78
ag79
ag80
ag81
ag82
ag83
ag24
ag51
ag52
asg189
(lp292
g67
ag68
ag206
ag198
ag117
ag124
ag125
asg177
(lp293
g6
ag102
ag103
ag104
ag105
ag26
asg176
(lp294
g177
ag178
ag184
ag123
asg13
(lp295
S'IF'
p296
ag189
ag67
ag68
ag206
ag198
ag14
ag15
ag16
ag17
ag18
ag19
ag20
ag21
asg194
(lp297
g13
ag296
ag189
ag67
ag68
ag206
ag198
ag142
ag195
ag144
ag145
asg296
(lp298
g189
ag67
ag68
ag206
ag198
ag139
asg52
(lp299
s.