(dp0
S'TETRAKISHEXAHEDRON'
p1
(lp2
sS'SUPERCONSCIOUSNESS'
p3
(lp4
sS'SUPERMAGNIFICENTLY'
p5
(lp6
sS'ARSENOPHENYLGLYCIN'
p7
(lp8
sS'ASTROCHRONOLOGICAL'
p9
(lp10
sS'SPECTROGRAPHICALLY'
p11
(lp12
sS'PSYCHONEUROLOGICAL'
p13
(lp14
sS'ANTHROPOMORPHITISM'
p15
(lp16
sS'CYTOPATHOLOGICALLY'
p17
(lp18
sS'SEMISOMNAMBULISTIC'
p19
(lp20
sS'SPONDYLEXARTHROSIS'
p21
(lp22
sS'SPINOSOTUBERCULATE'
p23
(lp24
sS'URETERONEPHRECTOMY'
p25
(lp26
sS'DUODENOENTEROSTOMY'
p27
(lp28
sS'OVERFASTIDIOUSNESS'
p29
(lp30
sS'PALAEODENDROLOGIST'
p31
(lp32
sS'ULTRAFILTERABILITY'
p33
(lp34
sS'STEREOFLUOROSCOPIC'
p35
(lp36
sS'SEMIHYDROBENZOINIC'
p37
(lp38
sS'ORCHIDOCELIOPLASTY'
p39
(lp40
sS'ANTHROPOPATHICALLY'
p41
(lp42
sS'TRIAKISTETRAHEDRON'
p43
(lp44
sS'TELEOROENTGENOGRAM'
p45
(lp46
sS'OVERPASSIONATENESS'
p47
(lp48
sS'COUNTERSTIMULATION'
p49
(lp50
sS'CHROMOPHOTOGRAPHIC'
p51
(lp52
S'CHRONOPHOTOGRAPHIC'
p53
asS'ETHYLHYDROCUPREINE'
p54
(lp55
sS'BACTERIOAGGLUTININ'
p56
(lp57
sS'HYPSIBRACHYCEPHALY'
p58
(lp59
sS'COUNTERRESTORATION'
p60
(lp61
sS'DISPROPORTIONALITY'
p62
(lp63
sS'BIBLIOKLEPTOMANIAC'
p64
(lp65
sS'SUPERCOMPREHENSION'
p66
(lp67
sS'THORACOCELOSCHISIS'
p68
(lp69
sS'PSEUDOMENSTRUATION'
p70
(lp71
sS'SUPERINDIVIDUALIST'
p72
(lp73
sS'LEPIDOPTEROLOGICAL'
p74
(lp75
sS'OVERSENTIMENTALIZE'
p76
(lp77
sS'URETEROPROCTOSTOMY'
p78
(lp79
sS'SUPERINDIVIDUALISM'
p80
(lp81
g72
asS'IRRECONCILABLENESS'
p82
(lp83
sS'PLATYSTENCEPHALISM'
p84
(lp85
sS'PREANTEPENULTIMATE'
p86
(lp87
sS'COUNTERLEGISLATION'
p88
(lp89
sS'PARALLELOGRAMMICAL'
p90
(lp91
sS'SULPHUREOVIRESCENT'
p92
(lp93
sS'EPITHELIOGLANDULAR'
p94
(lp95
sS'UNACCOMMODATEDNESS'
p96
(lp97
sS'DICTYOSIPHONACEOUS'
p98
(lp99
sS'INEFFERVESCIBILITY'
p100
(lp101
sS'REPRESENTATIVESHIP'
p102
(lp103
sS'TETRACHLOROMETHANE'
p104
(lp105
sS'HYDROXYBUTYRICACID'
p106
(lp107
sS'INTRACOMMUNICATION'
p108
(lp109
sS'ESTABLISHMENTARIAN'
p110
(lp111
sS'PRESUPERINTENDENCY'
p112
(lp113
sS'PALEORNITHOLOGICAL'
p114
(lp115
sS'SACCHAROMETABOLISM'
p116
(lp117
sS'EXTRAPARLIAMENTARY'
p118
(lp119
sS'ANTICONSTITUTIONAL'
p120
(lp121
sS'HEAUTONTIMORUMENOS'
p122
(lp123
sS'HYSTEROCRYSTALLINE'
p124
(lp125
sS'PSEUDOPROFESSORIAL'
p126
(lp127
sS'PROLETARIANIZATION'
p128
(lp129
sS'VASOEPIDIDYMOSTOMY'
p130
(lp131
sS'ADELARTHROSOMATOUS'
p132
(lp133
sS'CALCAREOBITUMINOUS'
p134
(lp135
sS'BLEPHARANTHRACOSIS'
p136
(lp137
sS'HYPERARCHEPISCOPAL'
p138
(lp139
sS'COTRANSUBSTANTIATE'
p140
(lp141
sS'SUPRARENALECTOMIZE'
p142
(lp143
sS'PSEUDOARISTOCRATIC'
p144
(lp145
sS'HYPERBRACHYCEPHALY'
p146
(lp147
sS'COUNTERDISTINGUISH'
p148
(lp149
sS'PHOTODECOMPOSITION'
p150
(lp151
sS'POLYMORPHONUCLEATE'
p152
(lp153
sS'HYPERORTHOGNATHOUS'
p154
(lp155
sS'INDISCRIMINATINGLY'
p156
(lp157
S'UNDISCRIMINATINGLY'
p158
asS'ELECTROOSMOTICALLY'
p159
(lp160
sS'DISPROPORTIONATION'
p161
(lp162
sS'SUPERCARBONIZATION'
p163
(lp164
sS'UNCONSTITUTIONALLY'
p165
(lp166
sS'PERHYDROANTHRACENE'
p167
(lp168
sS'PSEUDOANAPHYLACTIC'
p169
(lp170
sS'UNMISUNDERSTANDING'
p171
(lp172
sS'GASTROHYSTERECTOMY'
p173
(lp174
sS'NUCLEOLOCENTROSOME'
p175
(lp176
sS'THEROMORPHOLOGICAL'
p177
(lp178
sS'TUBERCULATOSPINOUS'
p179
(lp180
sS'HEMATOSPERMATOCELE'
p181
(lp182
sS'LAPAROHYSTERECTOMY'
p183
(lp184
sS'CRYPTOINFLATIONIST'
p185
(lp186
sS'STEREOCOMPARAGRAPH'
p187
(lp188
sS'IRRECONCILIABILITY'
p189
(lp190
sS'HYPERBRACHYCRANIAL'
p191
(lp192
sS'TRIAKISICOSAHEDRAL'
p193
(lp194
sS'QUADRATOMANDIBULAR'
p195
(lp196
sS'PSEUDOHYPERTROPHIC'
p197
(lp198
sS'INTERPENETRATIVELY'
p199
(lp200
sS'MISUNDERSTANDINGLY'
p201
(lp202
sS'PSYCHOPATHOLOGICAL'
p203
(lp204
sS'CRYSTALLOCHEMISTRY'
p205
(lp206
sS'INTERCARTILAGINOUS'
p207
(lp208
sS'THORACOBRONCHOTOMY'
p209
(lp210
sS'SUPERSPECIFICATION'
p211
(lp212
sS'THERMOGALVANOMETER'
p213
(lp214
sS'PSEUDOCHRONOLOGIST'
p215
(lp216
sS'HISTOPHYSIOLOGICAL'
p217
(lp218
sS'PHYSIOSOCIOLOGICAL'
p219
(lp220
sS'UNDENOMINATIONALLY'
p221
(lp222
sS'LYMPHOSARCOMATOSIS'
p223
(lp224
sS'CONTROVERSIONALISM'
p225
(lp226
S'CONTROVERSIONALIST'
p227
asS'DUODENOCHOLANGITIS'
p228
(lp229
sS'ANTIPATHETICALNESS'
p230
(lp231
sS'CHRISTADELPHIANISM'
p232
(lp233
sS'URETEROPYELOGRAPHY'
p234
(lp235
sS'PSYCHOBIOCHEMISTRY'
p236
(lp237
sS'THERMOTHERAPEUTICS'
p238
(lp239
sS'INTERTRANSVERSALIS'
p240
(lp241
sS'GINGLYMOARTHRODIAL'
p242
(lp243
sS'PALAEODICTYOPTERAN'
p244
(lp245
S'PALAEODICTYOPTERON'
p246
asS'SPECTROPHOTOMETRIC'
p247
(lp248
sg227
(lp249
sS'SUPPOSITITIOUSNESS'
p250
(lp251
sS'INDISCRIMINATIVELY'
p252
(lp253
sS'MAGNETOELECTRICITY'
p254
(lp255
sS'ULTRAMICROSCOPICAL'
p256
(lp257
sS'CHLOROPHYLLIGEROUS'
p258
(lp259
sS'PEPSINHYDROCHLORIC'
p260
(lp261
sS'PALAEONTOGRAPHICAL'
p262
(lp263
sS'PHYSICOTHERAPEUTIC'
p264
(lp265
sS'TRIPHENYLPHOSPHINE'
p266
(lp267
sS'ULTRABRACHYCEPHALY'
p268
(lp269
sS'SUPERPARLIAMENTARY'
p270
(lp271
sS'PSEUDOMULTILOCULAR'
p272
(lp273
sS'SUPERACCOMMODATING'
p274
(lp275
sS'ARTERIOLOSCLEROSIS'
p276
(lp277
sS'COUNTERDEVELOPMENT'
p278
(lp279
sS'OVERINTERESTEDNESS'
p280
(lp281
sS'OVERPROPORTIONATED'
p282
(lp283
sS'BENZALACETOPHENONE'
p284
(lp285
sS'MELANOSARCOMATOSIS'
p286
(lp287
sS'BACTERIOPRECIPITIN'
p288
(lp289
sS'AUSTRALOPITHECINAE'
p290
(lp291
sS'HYPERDOLICHOCEPHAL'
p292
(lp293
sS'ROENTGENOLOGICALLY'
p294
(lp295
sS'SPECTROBOLOGRAPHIC'
p296
(lp297
sS'PSEUDOENCEPHALITIC'
p298
(lp299
sS'PHYTOPHARMACOLOGIC'
p300
(lp301
sS'VISCERIPERICARDIAL'
p302
(lp303
sS'INDECOMPOSABLENESS'
p304
(lp305
sS'POSSESSIONLESSNESS'
p306
(lp307
sS'OVERMULTIPLICATION'
p308
(lp309
sS'NONPERSONIFICATION'
p310
(lp311
sS'NONULTRAFILTERABLE'
p312
(lp313
sS'BATHYHYPERESTHESIA'
p314
(lp315
sS'COUNTERACQUITTANCE'
p316
(lp317
sS'BRONCHOBLENNORRHEA'
p318
(lp319
sS'ENTOMOPHTHORACEOUS'
p320
(lp321
sS'INTERCONTRADICTORY'
p322
(lp323
sS'ELECTROCHRONOGRAPH'
p324
(lp325
sS'TRAPEZIOMETACARPAL'
p326
(lp327
sS'BRETSCHNEIDERACEAE'
p328
(lp329
sS'NEUROPHYSIOLOGICAL'
p330
(lp331
sS'INTERCOMPLIMENTARY'
p332
(lp333
sS'POLYSULPHURIZATION'
p334
(lp335
sS'SUPERDEMONSTRATION'
p336
(lp337
sS'ARCHREPRESENTATIVE'
p338
(lp339
sS'OVERCAPITALIZATION'
p340
(lp341
sS'COSTICARTILAGINOUS'
p342
(lp343
sS'CHONDROMYXOSARCOMA'
p344
(lp345
sS'PALAEOETHNOLOGICAL'
p346
(lp347
sS'UNENTERTAININGNESS'
p348
(lp349
sS'LARYNGOSTROBOSCOPE'
p350
(lp351
sS'THERMORADIOTHERAPY'
p352
(lp353
sS'UNDISCOVERABLENESS'
p354
(lp355
sS'CHEMICOENGINEERING'
p356
(lp357
sS'ANTICENTRALIZATION'
p358
(lp359
sS'CHRISTIANOPAGANISM'
p360
(lp361
sS'MECHANOTHERAPEUTIC'
p362
(lp363
sS'UNAPPRECIATIVENESS'
p364
(lp365
sS'UNCONFIDENTIALNESS'
p366
(lp367
sS'MUSCULOTEGUMENTARY'
p368
(lp369
sS'TETRAKAIDECAHEDRON'
p370
(lp371
sS'VESICULOTYMPANITIC'
p372
(lp373
sS'UNAPPREHENSIVENESS'
p374
(lp375
sS'COUNTERINDENTATION'
p376
(lp377
sS'ANTIMATRIMONIALIST'
p378
(lp379
sS'ANORTHOGRAPHICALLY'
p380
(lp381
S'UNORTHOGRAPHICALLY'
p382
asS'SACCHAROMYCETACEAE'
p383
(lp384
sS'ALLOTHIGENETICALLY'
p385
(lp386
sS'TUBERCULATOGIBBOUS'
p387
(lp388
sS'INTERINCORPORATION'
p389
(lp390
sS'OVERCONSERVATIVELY'
p391
(lp392
sS'SUPERPHLOGISTICATE'
p393
(lp394
sS'INTERAGGLUTINATION'
p395
(lp396
sS'CONTRADICTIOUSNESS'
p397
(lp398
sS'IATROMATHEMATICIAN'
p399
(lp400
sS'INAPPRECIATIVENESS'
p401
(lp402
g364
asS'MICROREFRACTOMETER'
p403
(lp404
sS'TRACHELOCLAVICULAR'
p405
(lp406
sS'MICRODETERMINATION'
p407
(lp408
sS'SEMICIRCUMVOLUTION'
p409
(lp410
sS'THERMESTHESIOMETER'
p411
(lp412
sS'INCOMMENSURATENESS'
p413
(lp414
sS'TELEUTOSPORIFEROUS'
p415
(lp416
sS'DISCOMMENDABLENESS'
p417
(lp418
sS'PHARMACOPSYCHOLOGY'
p419
(lp420
sS'ARISTODEMOCRATICAL'
p421
(lp422
sS'TRANSVERSOVERTICAL'
p423
(lp424
sS'UNCLASSIFIABLENESS'
p425
(lp426
sS'ANTIPROHIBITIONIST'
p427
(lp428
sS'STEREOPHOTOGRAPHIC'
p429
(lp430
sS'TRIAKISTETRAHEDRAL'
p431
(lp432
sS'UNEXCHANGEABLENESS'
p433
(lp434
sS'ENCEPHALOMALACOSIS'
p435
(lp436
sS'OSTEOCHONDROMATOUS'
p437
(lp438
sS'EXTRAPHYSIOLOGICAL'
p439
(lp440
sS'OVERREPRESENTATION'
p441
(lp442
sS'PHOTOSENSITIZATION'
p443
(lp444
sS'STERNOCLIDOMASTOID'
p445
(lp446
sS'SUPEREXQUISITENESS'
p447
(lp448
sS'PROMONARCHICALNESS'
p449
(lp450
sS'SPECTROPOLARIMETER'
p451
(lp452
sS'SUBJECTIVISTICALLY'
p453
(lp454
sS'UNACCOMPLISHEDNESS'
p455
(lp456
sS'PRESUPPOSITIONLESS'
p457
(lp458
sS'PALAEOPHYSIOGRAPHY'
p459
(lp460
sS'UNPROPORTIONEDNESS'
p461
(lp462
sS'HEREDOTUBERCULOSIS'
p463
(lp464
sS'PALEODENDROLOGICAL'
p465
(lp466
sS'UNENTERPRISINGNESS'
p467
(lp468
sS'LARYNGOTRACHEOTOMY'
p469
(lp470
sS'JURISPRUDENTIALIST'
p471
(lp472
sS'ELECTRODYNAMOMETER'
p473
(lp474
sS'INTERTRANSFORMABLE'
p475
(lp476
sS'INDISCRIMINATENESS'
p477
(lp478
sS'HEPATODUODENOSTOMY'
p479
(lp480
sS'RADIOMETALLOGRAPHY'
p481
(lp482
sS'OVATOCYLINDRACEOUS'
p483
(lp484
sS'COUNTERREMONSTRANT'
p485
(lp486
sS'UNQUESTIONABLENESS'
p487
(lp488
sS'PERCRYSTALLIZATION'
p489
(lp490
sS'PSEUDOAPPENDICITIS'
p491
(lp492
sS'GASTROENTEROLOGIST'
p493
(lp494
sS'MICROMETALLOGRAPHY'
p495
(lp496
sS'PNEUMATOPHILOSOPHY'
p497
(lp498
sS'TESTIMONIALIZATION'
p499
(lp500
sS'PERICARDIOCENTESIS'
p501
(lp502
sg246
(lp503
sS'INTERCOMMUNICATIVE'
p504
(lp505
sS'CHROMOLITHOGRAPHIC'
p506
(lp507
sS'DISPROPORTIONATELY'
p508
(lp509
sS'PSEUDOREMINISCENCE'
p510
(lp511
sS'LUPUSERYTHEMATOSUS'
p512
(lp513
sS'ANTIADMINISTRATION'
p514
(lp515
sS'OVERREPRESENTATIVE'
p516
(lp517
sS'UNENTHUSIASTICALLY'
p518
(lp519
sS'GEOPARALLELOTROPIC'
p520
(lp521
sS'ANGIOELEPHANTIASIS'
p522
(lp523
sS'HYPERCONSCIENTIOUS'
p524
(lp525
sS'OVERSUSCEPTIBILITY'
p526
(lp527
sS'THEOPHILANTHROPIST'
p528
(lp529
sS'COUNTERCOMPETITION'
p530
(lp531
sS'OVERCIRCUMSPECTION'
p532
(lp533
sS'ANTHROPOMETRICALLY'
p534
(lp535
sS'THERMOMETAMORPHISM'
p536
(lp537
sS'HYDROPLATINOCYANIC'
p538
(lp539
sS'UNREPROACHABLENESS'
p540
(lp541
sS'EXTRATHERMODYNAMIC'
p542
(lp543
sS'INTERPARLIAMENTARY'
p544
(lp545
sS'PSEUDOPROFESSIONAL'
p546
(lp547
sS'CONSTANTINOPOLITAN'
p548
(lp549
sS'CHROMOCOLLOGRAPHIC'
p550
(lp551
sS'INAPPROPRIABLENESS'
p552
(lp553
sS'CARBOCINCHOMERONIC'
p554
(lp555
sS'CONSCIENCELESSNESS'
p556
(lp557
sS'MICROSPECTROSCOPIC'
p558
(lp559
sS'NONDIVERSIFICATION'
p560
(lp561
sS'BLEPHAROPHRYPLASTY'
p562
(lp563
sS'HAEMOCONCENTRATION'
p564
(lp565
sS'TRIAKISICOSAHEDRON'
p566
(lp567
sS'ADENOCARCINOMATOUS'
p568
(lp569
sS'HYDROELECTRIZATION'
p570
(lp571
sS'OPHTHALMOTONOMETRY'
p572
(lp573
sS'EPIDIDYMOVASOSTOMY'
p574
(lp575
sS'HOBBLEDEHOYISHNESS'
p576
(lp577
sS'HISTORICORELIGIOUS'
p578
(lp579
sS'AUTOANTICOMPLEMENT'
p580
(lp581
sS'PHYTOTERATOLOGICAL'
p582
(lp583
sS'CORRESPONDENTIALLY'
p584
(lp585
sS'COUNTERIMAGINATION'
p586
(lp587
sS'HYPERSOPHISTICATED'
p588
(lp589
sS'ACEANTHRENEQUINONE'
p590
(lp591
sS'CELIOSALPINGECTOMY'
p592
(lp593
sS'MACROLEPIDOPTEROUS'
p594
(lp595
S'MICROLEPIDOPTEROUS'
p596
asS'PHOTOSYNTHETICALLY'
p597
(lp598
sS'UNAPPROACHABLENESS'
p599
(lp600
sS'OESOPHAGOSTOMIASIS'
p601
(lp602
sS'SUBDOLICHOCEPHALIC'
p603
(lp604
sS'LABYRINTHIBRANCHII'
p605
(lp606
sS'ULTRAREVOLUTIONIST'
p607
(lp608
sS'PALAEOANTHROPOLOGY'
p609
(lp610
sS'CHROMOCHALCOGRAPHY'
p611
(lp612
sS'UNDELIBERATIVENESS'
p613
(lp614
sS'COUNTEREXPLANATION'
p615
(lp616
sS'PSEUDOCONGLOMERATE'
p617
(lp618
sS'SPHERICOTRIANGULAR'
p619
(lp620
sS'THERMOLUMINESCENCE'
p621
(lp622
sS'PHOTOEPINASTICALLY'
p623
(lp624
sS'NEPHROTUBERCULOSIS'
p625
(lp626
sS'SUPERSUPERABUNDANT'
p627
(lp628
sS'BACTERIOSCOPICALLY'
p629
(lp630
sS'HYPERCONCENTRATION'
p631
(lp632
sS'SEMIPHLOGISTICATED'
p633
(lp634
sS'DISPERSONIFICATION'
p635
(lp636
sS'HYPERTHERMESTHESIA'
p637
(lp638
sS'OMNIREPRESENTATIVE'
p639
(lp640
sS'PHARYNGOEPIGLOTTIC'
p641
(lp642
sS'LAPAROTHORACOSCOPY'
p643
(lp644
sS'UNSUPERNATURALIZED'
p645
(lp646
sS'UNARISTOCRATICALLY'
p647
(lp648
sS'UNCOMPROMISINGNESS'
p649
(lp650
sS'ASTROPHOTOMETRICAL'
p651
(lp652
sS'OVERSPECIALIZATION'
p653
(lp654
sS'SULPHMETHEMOGLOBIN'
p655
(lp656
sS'PERFECTIBILITARIAN'
p657
(lp658
sS'INTERCOSTOBRACHIAL'
p659
(lp660
sS'CHONDROFIBROMATOUS'
p661
(lp662
sS'ESTHESIOPHYSIOLOGY'
p663
(lp664
sS'HEXAKISTETRAHEDRON'
p665
(lp666
sS'SPLANCHNAPOPHYSIAL'
p667
(lp668
sS'PSEUDOENTHUSIASTIC'
p669
(lp670
sS'TRACHEOLARYNGOTOMY'
p671
(lp672
sS'PALAEOPHYTOLOGICAL'
p673
(lp674
sS'DYAKISDODECAHEDRON'
p675
(lp676
sS'GALVANOPLASTICALLY'
p677
(lp678
sS'MICROCRYSTALLOGENY'
p679
(lp680
sS'UNDERSTANDABLENESS'
p681
(lp682
sS'SPECTROCOLORIMETRY'
p683
(lp684
sS'BACTERIOFLUORESCIN'
p685
(lp686
sS'ZYGOMATICOTEMPORAL'
p687
(lp688
sS'SUPRAQUANTIVALENCE'
p689
(lp690
sS'OPHTHALMOTONOMETER'
p691
(lp692
sS'TRACHELECTOMOPEXIA'
p693
(lp694
sS'ANTIDISCIPLINARIAN'
p695
(lp696
sS'PROSTATOMYOMECTOMY'
p697
(lp698
sS'ANARCHOSYNDICALISM'
p699
(lp700
S'ANARCHOSYNDICALIST'
p701
asS'SPLANCHNOSCLEROSIS'
p702
(lp703
sS'PHOSPHOAMINOLIPIDE'
p704
(lp705
sS'HEXOSEDIPHOSPHORIC'
p706
(lp707
sg701
(lp708
sS'ANTHROPOSOMATOLOGY'
p709
(lp710
sS'THYROEPIGLOTTIDEAN'
p711
(lp712
sS'PROPORTIONABLENESS'
p713
(lp714
sS'DISELECTRIFICATION'
p715
(lp716
sS'COSTODIAPHRAGMATIC'
p717
(lp718
sS'PSEUDOSACRILEGIOUS'
p719
(lp720
sS'SQUAMOSOIMBRICATED'
p721
(lp722
sS'OOPHORHYSTERECTOMY'
p723
(lp724
sS'COUNTERMACHINATION'
p725
(lp726
sS'INDECIPHERABLENESS'
p727
(lp728
sS'UNDISTINGUISHINGLY'
p729
(lp730
sS'TUBERCULOSECTORIAL'
p731
(lp732
sS'SUBMICROSCOPICALLY'
p733
(lp734
sS'CALCAREOSULPHUROUS'
p735
(lp736
sS'PHOTOSENSITIVENESS'
p737
(lp738
sS'OCCIPITOSPHENOIDAL'
p739
(lp740
sS'HYPSILOPHODONTIDAE'
p741
(lp742
sS'SEMIRESPECTABILITY'
p743
(lp744
sS'SYNCATEGOREMATICAL'
p745
(lp746
sS'MANGANHEDENBERGITE'
p747
(lp748
sS'PHYSICOMATHEMATICS'
p749
(lp750
sS'CHORIONEPITHELIOMA'
p751
(lp752
sS'ASTROSPECTROSCOPIC'
p753
(lp754
sS'INDISCERPTIBLENESS'
p755
(lp756
sS'PHENOMENOLOGICALLY'
p757
(lp758
sS'INDETERMINABLENESS'
p759
(lp760
sS'COLLECTIVISTICALLY'
p761
(lp762
sS'PSEUDOEQUALITARIAN'
p763
(lp764
sS'HYDROCOBALTICYANIC'
p765
(lp766
sS'PSEUDOSTEREOSCOPIC'
p767
(lp768
sS'ELECTROCOAGULATION'
p769
(lp770
sS'NONTRANSFERABILITY'
p771
(lp772
sS'TUBERCULATORADIATE'
p773
(lp774
sS'TURBINATOSTIPITATE'
p775
(lp776
sS'URETEROENTEROSTOMY'
p777
(lp778
sS'INFRADIAPHRAGMATIC'
p779
(lp780
sS'DUODENOJEJUNOSTOMY'
p781
(lp782
sS'PHARYNGOESOPHAGEAL'
p783
(lp784
sS'PHYCOCHROMOPHYCEAE'
p785
(lp786
sS'ANTHROPOMORPHOUSLY'
p787
(lp788
sS'INCOPRESENTABILITY'
p789
(lp790
sS'UNCONTROLLABLENESS'
p791
(lp792
sS'THEOPHILANTHROPISM'
p793
(lp794
g528
asS'ELECTROCAPILLARITY'
p795
(lp796
sS'MORPHOPHONEMICALLY'
p797
(lp798
sS'TELECINEMATOGRAPHY'
p799
(lp800
S'TELEKINEMATOGRAPHY'
p801
asS'PARADICHLORBENZENE'
p802
(lp803
sS'OVERABSTEMIOUSNESS'
p804
(lp805
sS'UNOSTENTATIOUSNESS'
p806
(lp807
sS'PSEUDOASYMMETRICAL'
p808
(lp809
sS'PSEUDONEUROPTEROUS'
p810
(lp811
sS'THERMOELECTRICALLY'
p812
(lp813
sS'BRONCHOCONSTRICTOR'
p814
(lp815
sS'PSYCHOTHERAPEUTIST'
p816
(lp817
sS'NONINTROSPECTIVELY'
p818
(lp819
sS'PHYSIOTHERAPEUTICS'
p820
(lp821
sS'HETEROFERMENTATIVE'
p822
(lp823
sS'SCHOPENHAUEREANISM'
p824
(lp825
sS'ARCHICLEISTOGAMOUS'
p826
(lp827
sS'SCUTELLIPLANTATION'
p828
(lp829
sS'EXPRESSIONLESSNESS'
p830
(lp831
sS'PSEUDORHOMBOHEDRAL'
p832
(lp833
sS'THERMOELECTROMETER'
p834
(lp835
sS'PROPIONIBACTERIEAE'
p836
(lp837
sS'COUNTERASSOCIATION'
p838
(lp839
sS'PSYCHORHYTHMICALLY'
p840
(lp841
sS'ERYTHROCYTORRHEXIS'
p842
(lp843
sS'POSTRESURRECTIONAL'
p844
(lp845
sS'NONEXCHANGEABILITY'
p846
(lp847
sS'OVERSIMPLIFICATION'
p848
(lp849
sS'PHARYNGOLARYNGITIS'
p850
(lp851
sS'MUSCULOLIGAMENTOUS'
p852
(lp853
sS'PSEUDOMULTISEPTATE'
p854
(lp855
sS'ETHNOPSYCHOLOGICAL'
p856
(lp857
sS'GASTROPANCREATITIS'
p858
(lp859
sS'PARALLELOGRAMMATIC'
p860
(lp861
sS'ORTHOSYMMETRICALLY'
p862
(lp863
sS'SEMICIRCUMFERENTOR'
p864
(lp865
sS'PSEUDODIPHTHERITIC'
p866
(lp867
sS'OVERSOPHISTICATION'
p868
(lp869
sS'LARYNGOPHARYNGITIS'
p870
(lp871
sS'ELECTROTHERAPEUTIC'
p872
(lp873
sS'UNCOMMUNICABLENESS'
p874
(lp875
sS'HYPERCOAGULABILITY'
p876
(lp877
sS'PHYSIOPATHOLOGICAL'
p878
(lp879
sS'ELECTROCARDIOGRAPH'
p880
(lp881
sS'HEMIBASIDIOMYCETES'
p882
(lp883
sS'SUPERGRATIFICATION'
p884
(lp885
sS'UNINTERMITTINGNESS'
p886
(lp887
sS'QUINQUETUBERCULATE'
p888
(lp889
sS'INCOMMENSURABILITY'
p890
(lp891
S'UNCOMMENSURABILITY'
p892
asS'PSYCHOPHYSIOLOGIST'
p893
(lp894
sS'EXTEMPORANEOUSNESS'
p895
(lp896
sS'CHAMAESIPHONACEOUS'
p897
(lp898
sS'PANCREATICOSPLENIC'
p899
(lp900
sS'ELECTRODISSOLUTION'
p901
(lp902
sS'MEMBRANOCALCAREOUS'
p903
(lp904
sS'CHLAMYDOMONADACEAE'
p905
(lp906
sS'ELECTROCHRONOMETER'
p907
(lp908
sS'PARALLELEPIPEDONAL'
p909
(lp910
sS'PSYCHOANALYTICALLY'
p911
(lp912
sS'ANTHROPOMORPHOLOGY'
p913
(lp914
sS'AUTOBIOGRAPHICALLY'
p915
(lp916
sS'OVARIOHYSTERECTOMY'
p917
(lp918
sS'POLYDENOMINATIONAL'
p919
(lp920
sS'PHYSICOTHEOLOGICAL'
p921
(lp922
sS'ACROTROPHONEUROSIS'
p923
(lp924
sS'GASTRODUODENOSCOPY'
p925
(lp926
sS'PRESTIDIGITATORIAL'
p927
(lp928
sS'MICROHISTOCHEMICAL'
p929
(lp930
sS'PNEUMONOERYSIPELAS'
p931
(lp932
sS'PSEUDOPHENANTHRENE'
p933
(lp934
sS'OPHTHALMENCEPHALON'
p935
(lp936
sS'INTERTRANSMISSIBLE'
p937
(lp938
sS'SPECTROPOLARISCOPE'
p939
(lp940
sS'DESPIRITUALIZATION'
p941
(lp942
sS'AUTOPSYCHOANALYSIS'
p943
(lp944
sS'URETERORADIOGRAPHY'
p945
(lp946
sS'TRANSUBSTANTIATION'
p947
(lp948
sS'CHLOROPHYLLIGENOUS'
p949
(lp950
g258
asS'PROMORPHOLOGICALLY'
p951
(lp952
sS'UNDERSECRETARYSHIP'
p953
(lp954
sS'TRANSRECTIFICATION'
p955
(lp956
sS'DECHRISTIANIZATION'
p957
(lp958
sS'CHLOROPHYLLIFEROUS'
p959
(lp960
g258
asS'PHOTOCHRONOGRAPHIC'
p961
(lp962
sS'PLATITUDINARIANISM'
p963
(lp964
sS'SPHYGMOCHRONOGRAPH'
p965
(lp966
sS'SENTIMENTALIZATION'
p967
(lp968
sS'TELOTEROPATHICALLY'
p969
(lp970
sS'HYPERAMINOACIDEMIA'
p971
(lp972
sS'AMINOANTHRAQUINONE'
p973
(lp974
sS'INDEMONSTRABLENESS'
p975
(lp976
sS'FOUNDATIONLESSNESS'
p977
(lp978
sS'THYREOARYTENOIDEUS'
p979
(lp980
sS'MICROMINERALOGICAL'
p981
(lp982
sS'TELEMETEOROGRAPHIC'
p983
(lp984
sS'SUPRACONSCIOUSNESS'
p985
(lp986
sS'ACTINOELECTRICALLY'
p987
(lp988
sS'SALPINGOPHARYNGEUS'
p989
(lp990
sS'SCLEROKERATOIRITIS'
p991
(lp992
sS'RECONSTRUCTIVENESS'
p993
(lp994
sS'PREACCOMMODATINGLY'
p995
(lp996
sS'LAPAROSALPINGOTOMY'
p997
(lp998
sS'GLOMERULONEPHRITIS'
p999
(lp1000
sS'ULTRAREVOLUTIONARY'
p1001
(lp1002
sS'SPINOGALVANIZATION'
p1003
(lp1004
sS'NEUROPSYCHOLOGICAL'
p1005
(lp1006
sS'PHYTOPHYSIOLOGICAL'
p1007
(lp1008
sS'BIOPHYSICOCHEMICAL'
p1009
(lp1010
sS'IMPRESSIONABLENESS'
p1011
(lp1012
sS'ANTIPREDETERMINANT'
p1013
(lp1014
sS'ELEMENTALISTICALLY'
p1015
(lp1016
sS'OVERSCRUPULOUSNESS'
p1017
(lp1018
sS'UNDERCONSCIOUSNESS'
p1019
(lp1020
sS'GASTROENTEROPTOSIS'
p1021
(lp1022
sS'PHLEBARTERIECTASIA'
p1023
(lp1024
sS'ANTIVIVISECTIONIST'
p1025
(lp1026
sS'SCLEROCHORIOIDITIS'
p1027
(lp1028
sS'INTERDIFFUSIVENESS'
p1029
(lp1030
sS'ANTHROPOGEOGRAPHER'
p1031
(lp1032
sS'PREDISSATISFACTION'
p1033
(lp1034
sS'SCLEROCONJUNCTIVAL'
p1035
(lp1036
sg801
(lp1037
sS'INTERCHANGEABILITY'
p1038
(lp1039
sS'HYPIDIOMORPHICALLY'
p1040
(lp1041
sS'ENDOTHELIOBLASTOMA'
p1042
(lp1043
sS'PREDETERMINABILITY'
p1044
(lp1045
sS'STOICHIOMETRICALLY'
p1046
(lp1047
sS'PARTHENOCARPICALLY'
p1048
(lp1049
sS'OVERCENTRALIZATION'
p1050
(lp1051
sS'VEGETOCARBONACEOUS'
p1052
(lp1053
sS'UNEXTERRITORIALITY'
p1054
(lp1055
sS'COUNTERDISTINCTION'
p1056
(lp1057
sS'ANCISTROCLADACEOUS'
p1058
(lp1059
sS'STAPHYLODERMATITIS'
p1060
(lp1061
sS'OMNIDENOMINATIONAL'
p1062
(lp1063
sS'CHONDROSARCOMATOUS'
p1064
(lp1065
sS'UNSYMPATHIZABILITY'
p1066
(lp1067
sS'ELECTROTAUTOMERISM'
p1068
(lp1069
sS'SPECTRORADIOMETRIC'
p1070
(lp1071
sS'HYPERGLYCORRHACHIA'
p1072
(lp1073
sS'PHYTOSEROLOGICALLY'
p1074
(lp1075
sS'HYDROMETALLURGICAL'
p1076
(lp1077
sS'FIBROCARTILAGINOUS'
p1078
(lp1079
sS'NONINDIVIDUALISTIC'
p1080
(lp1081
sS'PSEUDOPELLETIERINE'
p1082
(lp1083
sS'PALEOCLIMATOLOGIST'
p1084
(lp1085
sS'RHODOBACTERIOIDEAE'
p1086
(lp1087
sS'UNSPINSTERLIKENESS'
p1088
(lp1089
sS'NONTRIGONOMETRICAL'
p1090
(lp1091
sS'TUBERCULOTHERAPIST'
p1092
(lp1093
sS'ORTHOPSYCHIATRICAL'
p1094
(lp1095
sS'POSTMILLENARIANISM'
p1096
(lp1097
sS'MYXOCHONDROSARCOMA'
p1098
(lp1099
sg596
(lp1100
sS'INCONSEQUENTIALITY'
p1101
(lp1102
sS'IMPRESCRIPTIBILITY'
p1103
(lp1104
sS'HISTOMORPHOLOGICAL'
p1105
(lp1106
sS'BRACHIORRHACHIDIAN'
p1107
(lp1108
sS'TRANSUBSTANTIATORY'
p1109
(lp1110
sS'PALEOHERPETOLOGIST'
p1111
(lp1112
sS'CENTRIFUGALIZATION'
p1113
(lp1114
sS'OVERDISCOURAGEMENT'
p1115
(lp1116
sS'UNACKNOWLEDGEDNESS'
p1117
(lp1118
sS'PLASMODIOPHORACEAE'
p1119
(lp1120
sS'INEQUIPOTENTIALITY'
p1121
(lp1122
sS'ANTISTAPHYLOCOCCIC'
p1123
(lp1124
sS'SUPEROBJECTIONABLE'
p1125
(lp1126
sS'SULPHOTEREPHTHALIC'
p1127
(lp1128
sS'URETHROBLENNORRHEA'
p1129
(lp1130
sS'CARDIOSPHYGMOGRAPH'
p1131
(lp1132
sS'HEMATOLYMPHANGIOMA'
p1133
(lp1134
sS'SUPERSESQUITERTIAL'
p1135
(lp1136
sS'HISTORICOPOLITICAL'
p1137
(lp1138
sS'UNRECONCILABLENESS'
p1139
(lp1140
sS'NONINTERVENTIONIST'
p1141
(lp1142
sS'PRECONTEMPORANEOUS'
p1143
(lp1144
sS'CARDIOPERICARDITIS'
p1145
(lp1146
sS'PRESUPERINTENDENCE'
p1147
(lp1148
g112
asS'PSEUDOCONSERVATIVE'
p1149
(lp1150
sS'INTRACARTILAGINOUS'
p1151
(lp1152
sS'SULPHODICHLORAMINE'
p1153
(lp1154
sS'INTERZYGAPOPHYSIAL'
p1155
(lp1156
sS'ANTHRAHYDROQUINONE'
p1157
(lp1158
sS'SEMIQUANTITATIVELY'
p1159
(lp1160
sS'SUPERSENSITIVENESS'
p1161
(lp1162
sS'COUNTERDECLARATION'
p1163
(lp1164
sg382
(lp1165
sS'DEANTHROPOMORPHIZE'
p1166
(lp1167
sS'SPLANCHNOGRAPHICAL'
p1168
(lp1169
sS'HERMAPHRODITICALLY'
p1170
(lp1171
sS'ARISTOCRATICALNESS'
p1172
(lp1173
sg53
(lp1174
sS'ULTRACONSCIENTIOUS'
p1175
(lp1176
sS'MYCOSPHAERELLACEAE'
p1177
(lp1178
sS'INAPPREHENSIVENESS'
p1179
(lp1180
g374
asS'NAPHTHOLSULPHONATE'
p1181
(lp1182
sS'FORETHOUGHTFULNESS'
p1183
(lp1184
sg892
(lp1185
sS'SPIRITUALISTICALLY'
p1186
(lp1187
sS'DIETHYLSTILBESTROL'
p1188
(lp1189
sS'INTERPARENTHETICAL'
p1190
(lp1191
sS'VENTROCYSTORRHAPHY'
p1192
(lp1193
sS'UNDIMINISHABLENESS'
p1194
(lp1195
sS'COUNTERAFFIRMATION'
p1196
(lp1197
sS'TRANSUBSTANTIATIVE'
p1198
(lp1199
sS'ANTHROPOTELEOCLOGY'
p1200
(lp1201
sS'HYPERCONSCIOUSNESS'
p1202
(lp1203
sS'UNMISINTERPRETABLE'
p1204
(lp1205
sS'SALPINGOPHARYNGEAL'
p1206
(lp1207
sS'INCOMMUNICABLENESS'
p1208
(lp1209
g874
asS'COUNTERCURRENTWISE'
p1210
(lp1211
sS'AUTOBASIDIOMYCETES'
p1212
(lp1213
sS'PRETERCONVENTIONAL'
p1214
(lp1215
sS'UNREMUNERATIVENESS'
p1216
(lp1217
sS'DISPROBABILIZATION'
p1218
(lp1219
sS'UNEXCEPTIONABILITY'
p1220
(lp1221
sS'ELECTROTELEGRAPHIC'
p1222
(lp1223
sS'ELECTRODEPOSITABLE'
p1224
(lp1225
sS'RADIOCINEMATOGRAPH'
p1226
(lp1227
sS'PSEUDOPHELLANDRENE'
p1228
(lp1229
sg158
(lp1230
sS'ULTRAMICROCHEMICAL'
p1231
(lp1232
sS'SEMIACCOMPLISHMENT'
p1233
(lp1234
sS'CIRCUMSTANTIALNESS'
p1235
(lp1236
sS'PROTOHYMENOPTEROUS'
p1237
(lp1238
sS'OPHTHALMODIAGNOSIS'
p1239
(lp1240
sS'ETHMOPRESPHENOIDAL'
p1241
(lp1242
sS'ELECTROCORTICOGRAM'
p1243
(lp1244
sS'MONOPHTHONGIZATION'
p1245
(lp1246
sS'NONINTERCHANGEABLE'
p1247
(lp1248
sS'COMPREHENSIBLENESS'
p1249
(lp1250
sS'PTERIDOSPERMAPHYTA'
p1251
(lp1252
sS'GALVANOTHERMOMETER'
p1253
(lp1254
sS'COUNTERREFORMATION'
p1255
(lp1256
sS'DEANTHROPOMORPHISM'
p1257
(lp1258
sS'SPINOSODENTICULATE'
p1259
(lp1260
sS'UNIDENTIFIABLENESS'
p1261
(lp1262
sS'DENDROCHRONOLOGIST'
p1263
(lp1264
sS'MICROCINEMATOGRAPH'
p1265
(lp1266
sS'HYPERSENSITIZATION'
p1267
(lp1268
sS'CHARACTERISTICALLY'
p1269
(lp1270
sS'BIOBIBLIOGRAPHICAL'
p1271
(lp1272
sS'PROELECTRIFICATION'
p1273
(lp1274
sS'ARGILLOFERRUGINOUS'
p1275
(lp1276
sS'COLPOPERINEOPLASTY'
p1277
(lp1278
sS'CHOLECYSTOCOLOTOMY'
p1279
(lp1280
sS'ENCEPHALOPSYCHESIS'
p1281
(lp1282
sS'PHENYLACETALDEHYDE'
p1283
(lp1284
sS'VOLTAELECTROMETRIC'
p1285
(lp1286
sS'ANENCEPHALOTROPHIA'
p1287
(lp1288
sS'CERATOPTERIDACEOUS'
p1289
(lp1290
sS'UNCONSCIONABLENESS'
p1291
(lp1292
sS'PHYTOTOPOGRAPHICAL'
p1293
(lp1294
sS'PARLIAMENTARIANISM'
p1295
(lp1296
sS'POSTERIORISTICALLY'
p1297
(lp1298
sS'PRESTANDARDIZATION'
p1299
(lp1300
sS'HYPERMETAMORPHOTIC'
p1301
(lp1302
sS'UNSATISFACTORINESS'
p1303
(lp1304
sS'OVEROBSEQUIOUSNESS'
p1305
(lp1306
sS'PROCONSERVATIONIST'
p1307
(lp1308
sS'CRYSTALLOGRAPHICAL'
p1309
(lp1310
sS'METHYLCHOLANTHRENE'
p1311
(lp1312
sS'DIHYDRONAPHTHALENE'
p1313
(lp1314
sS'VISCEROPERITIONEAL'
p1315
(lp1316
sS'BRACHISTOCEPHALOUS'
p1317
(lp1318
sS'DIAHELIOTROPICALLY'
p1319
(lp1320
sS'INTERCOMMUNICATION'
p1321
(lp1322
sS'DISENFRANCHISEMENT'
p1323
(lp1324
sS'OPHTHALMOCARCINOMA'
p1325
(lp1326
sS'REPRESENTATIVENESS'
p1327
(lp1328
sS'BRONCHOHEMORRHAGIA'
p1329
(lp1330
sS'DISPERSOIDOLOGICAL'
p1331
(lp1332
sS'ADENOLIOMYOFIBROMA'
p1333
(lp1334
sS'PHONOCINEMATOGRAPH'
p1335
(lp1336
sS'ANTIANAPHYLACTOGEN'
p1337
(lp1338
sS'BALNEOTHERAPEUTICS'
p1339
(lp1340
sS'PNEUMOENCEPHALITIS'
p1341
(lp1342
sS'NONPROGNOSTICATION'
p1343
(lp1344
sS'DERMATOPATHOPHOBIA'
p1345
(lp1346
sS'HEMIDEMISEMIQUAVER'
p1347
(lp1348
sS'RETINOCHORIOIDITIS'
p1349
(lp1350
sS'CREATINEPHOSPHORIC'
p1351
(lp1352
sS'OVERSOLICITOUSNESS'
p1353
(lp1354
sS'PALAEOTYPOGRAPHIST'
p1355
(lp1356
sS'UNPREMEDITATEDNESS'
p1357
(lp1358
sS'ENCEPHALOSCLEROSIS'
p1359
(lp1360
sS'OVERSYSTEMATICALLY'
p1361
(lp1362
sS'CHICKENHEARTEDNESS'
p1363
(lp1364
sS'SULFONETHYLMETHANE'
p1365
(lp1366
sS'PNEUMOTHERAPEUTICS'
p1367
(lp1368
sS'EXTRATERRITORIALLY'
p1369
(lp1370
sS'CHAMAEPERICLYMENUM'
p1371
(lp1372
sS'MARKGENOSSENSCHAFT'
p1373
(lp1374
sS'PSEUDOTUBERCULOSIS'
p1375
(lp1376
sS'INCONSIDERABLENESS'
p1377
(lp1378
sS'SPECTROPHOTOGRAPHY'
p1379
(lp1380
sS'CHROMOLITHOGRAPHER'
p1381
(lp1382
sS'PHARYNGOBRANCHIATE'
p1383
(lp1384
sS'ANTIMINISTERIALIST'
p1385
(lp1386
sS'PHOTOTACHOMETRICAL'
p1387
(lp1388
sS'UNTRANSLATABLENESS'
p1389
(lp1390
sS'ERYTHROCYTOSCHISIS'
p1391
(lp1392
sS'CONTRADISCRIMINATE'
p1393
(lp1394
sS'HETEROINTOXICATION'
p1395
(lp1396
sS'PAPULOERYTHEMATOUS'
p1397
(lp1398
sS'COUNTERATTESTATION'
p1399
(lp1400
sS'HYMENOPTEROLOGICAL'
p1401
(lp1402
sS'PHOTOTOPOGRAPHICAL'
p1403
(lp1404
g1293
asS'CONTRAREMONSTRANCE'
p1405
(lp1406
sS'THERMOGEOGRAPHICAL'
p1407
(lp1408
sS'THEOLOGICOMILITARY'
p1409
(lp1410
sS'CONTRAPOLARIZATION'
p1411
(lp1412
sS'ACTINOTHERAPEUTICS'
p1413
(lp1414
sS'PHOTOSPECTROSCOPIC'
p1415
(lp1416
sS'PHANEROCRYSTALLINE'
p1417
(lp1418
sS'PHOTOISOMERIZATION'
p1419
(lp1420
sS'UNINTELLIGIBLENESS'
p1421
(lp1422
sS'QUADRICOTYLEDONOUS'
p1423
(lp1424
sS'COCCOLITHOPHORIDAE'
p1425
(lp1426
sS'HISTORICOPROPHETIC'
p1427
(lp1428
sS'SIGMOIDORECTOSTOMY'
p1429
(lp1430
sS'STAPEDIOVESTIBULAR'
p1431
(lp1432
sS'SERRATODENTICULATE'
p1433
(lp1434
sS'TRANSDIAPHRAGMATIC'
p1435
(lp1436
sS'ELECTRODESICCATION'
p1437
(lp1438
sS'PALEOPSYCHOLOGICAL'
p1439
(lp1440
sS'SUPEROFFICIOUSNESS'
p1441
(lp1442
sS'INSURMOUNTABLENESS'
p1443
(lp1444
S'UNSURMOUNTABLENESS'
p1445
asS'AUTALLOTRIOMORPHIC'
p1446
(lp1447
sS'NONPROFESSIONALISM'
p1448
(lp1449
sS'SALPINGOSTAPHYLINE'
p1450
(lp1451
sS'IRREPROACHABLENESS'
p1452
(lp1453
sS'SUPERJUSTIFICATION'
p1454
(lp1455
sS'PSEUDOETYMOLOGICAL'
p1456
(lp1457
sS'COUNTERPREPARATION'
p1458
(lp1459
sS'ECHINOSPHAERITIDAE'
p1460
(lp1461
sS'HYPSISTENOCEPHALIC'
p1462
(lp1463
sS'DYNAMOMETAMORPHISM'
p1464
(lp1465
sS'PSEUDOARTICULATION'
p1466
(lp1467
sS'INTERCONTRADICTION'
p1468
(lp1469
sS'PARADICHLOROBENZOL'
p1470
(lp1471
sS'OSSEOCARTILAGINOUS'
p1472
(lp1473
S'OSTEOCARTILAGINOUS'
p1474
asS'SPLANCHNODIASTASIS'
p1475
(lp1476
sS'PHOENICOPTEROIDEAE'
p1477
(lp1478
sS'NONUNDERSTANDINGLY'
p1479
(lp1480
sg1474
(lp1481
sS'COUNTERTRANSLATION'
p1482
(lp1483
sS'PREDISCONTINUATION'
p1484
(lp1485
sS'ANTIRESERVATIONIST'
p1486
(lp1487
sS'PHYTOPALEONTOLOGIC'
p1488
(lp1489
sS'AUTOSUGGESTIBILITY'
p1490
(lp1491
sS'ANTIPERISTATICALLY'
p1492
(lp1493
sS'HYDROCHLORPLATINIC'
p1494
(lp1495
sS'UNINCORPORATEDNESS'
p1496
(lp1497
sS'POLYCHROMATOPHILIA'
p1498
(lp1499
S'POLYCHROMATOPHILIC'
p1500
asg1500
(lp1501
sS'TRANSINCORPORATION'
p1502
(lp1503
sS'DISSYLLABIFICATION'
p1504
(lp1505
sS'MANDIBULOMAXILLARY'
p1506
(lp1507
sS'ANTIFUNDAMENTALIST'
p1508
(lp1509
sS'SUPERINTENDENTSHIP'
p1510
(lp1511
sS'ZOOPHARMACOLOGICAL'
p1512
(lp1513
sS'ANGIOCHOLECYSTITIS'
p1514
(lp1515
sS'PALAEOBIOGEOGRAPHY'
p1516
(lp1517
sS'PSYCHOPANNYCHISTIC'
p1518
(lp1519
sS'CALCANEOASTRAGALAR'
p1520
(lp1521
sS'PERMOCARBONIFEROUS'
p1522
(lp1523
sS'REPANDODENTICULATE'
p1524
(lp1525
sS'ZYGOMATICOSPHENOID'
p1526
(lp1527
sS'EXTRASCRIPTURALITY'
p1528
(lp1529
sS'GLOMEROPORPHYRITIC'
p1530
(lp1531
sS'PROPAGANDISTICALLY'
p1532
(lp1533
sS'HANDICRAFTSMANSHIP'
p1534
(lp1535
sS'EPIDERMIDALIZATION'
p1536
(lp1537
sS'RETROCONSCIOUSNESS'
p1538
(lp1539
sS'CHLAMYDOSELACHIDAE'
p1540
(lp1541
sS'CHARACTERISTICNESS'
p1542
(lp1543
sS'DISTINGUISHABILITY'
p1544
(lp1545
sS'LAPAROTRACHELOTOMY'
p1546
(lp1547
sS'ANTIVACCINATIONIST'
p1548
(lp1549
sS'PHOTOGALVANOGRAPHY'
p1550
(lp1551
sS'UNRECOGNIZABLENESS'
p1552
(lp1553
sS'PSEUDOFLUORESCENCE'
p1554
(lp1555
sS'DISSERVICEABLENESS'
p1556
(lp1557
sS'HYPERLEPTOPROSOPIC'
p1558
(lp1559
sS'HYALINOCRYSTALLINE'
p1560
(lp1561
sS'INCOMPRESSIBLENESS'
p1562
(lp1563
sS'ICHTHYOPHTHIRIASIS'
p1564
(lp1565
sS'UNCIRCUMSCRIPTIBLE'
p1566
(lp1567
sS'COUNTERPROPOSITION'
p1568
(lp1569
sS'THORACICOABDOMINAL'
p1570
(lp1571
sS'ARGININEPHOSPHORIC'
p1572
(lp1573
sS'DISCOMFORTABLENESS'
p1574
(lp1575
sS'INDESTRUCTIBLENESS'
p1576
(lp1577
sS'HYPERSENSITIVENESS'
p1578
(lp1579
sS'ELECTROLUMINESCENT'
p1580
(lp1581
sS'PSEUDOAFFECTIONATE'
p1582
(lp1583
sg1445
(lp1584
sS'TRANSACCIDENTATION'
p1585
(lp1586
sS'DESACCHARIFICATION'
p1587
(lp1588
sS'VERISIMILITUDINOUS'
p1589
(lp1590
sS'TERRITORIALIZATION'
p1591
(lp1592
sS'ASTRAGALONAVICULAR'
p1593
(lp1594
sS'TRACHELOACROMIALIS'
p1595
(lp1596
sS'DISACKNOWLEDGEMENT'
p1597
(lp1598
sS'COUNTERVINDICATION'
p1599
(lp1600
sS'SEMIPHOSPHORESCENT'
p1601
(lp1602
sS'CHLOROACETOPHENONE'
p1603
(lp1604
sS'METALLOTHERAPEUTIC'
p1605
(lp1606
sS'OVERSENTIMENTALISM'
p1607
(lp1608
sS'PSYCHOGALVANOMETER'
p1609
(lp1610
sS'ASTROMETEOROLOGIST'
p1611
(lp1612
sS'SUPERESTABLISHMENT'
p1613
(lp1614
sS'MICROLEPIDOPTERIST'
p1615
(lp1616
sS'NONELECTRIFICATION'
p1617
(lp1618
sS'SUPERSENSITIZATION'
p1619
(lp1620
sS'TRIANGULOPYRAMIDAL'
p1621
(lp1622
sS'MEMBRANOCORIACEOUS'
p1623
(lp1624
sS'CHORIOIDORETINITIS'
p1625
(lp1626
sS'PHARYNGORHINOSCOPY'
p1627
(lp1628
sS'INTERDETERMINATION'
p1629
(lp1630
sS'PRETERDETERMINEDLY'
p1631
(lp1632
sS'ANTIECCLESIASTICAL'
p1633
(lp1634
sS'TRANSMOGRIFICATION'
p1635
(lp1636
sS'PSEUDOMILITARISTIC'
p1637
(lp1638
sS'ELECTROTHERMOMETER'
p1639
(lp1640
sS'QUICKSILVERISHNESS'
p1641
(lp1642
sS'SOMATICOSPLANCHNIC'
p1643
(lp1644
sS'PREDISADVANTAGEOUS'
p1645
(lp1646
sS'UNDERPARTICIPATION'
p1647
(lp1648
sS'MAGNETOTRANSMITTER'
p1649
(lp1650
sS'ZOOLOGICOBOTANICAL'
p1651
(lp1652
sS'BENZOPHENOTHIAZINE'
p1653
(lp1654
sS'HEMATOSPECTROSCOPE'
p1655
(lp1656
sS'TELEHYDROBAROMETER'
p1657
(lp1658
sS'CYANOMETHEMOGLOBIN'
p1659
(lp1660
sS'HYPERMETAMORPHOSIS'
p1661
(lp1662
sS'IMPERMEABILIZATION'
p1663
(lp1664
sS'AUTOPSYCHORHYTHMIA'
p1665
(lp1666
sS'DIHYDROTACHYSTEROL'
p1667
(lp1668
sS'PLEUROPERICARDITIS'
p1669
(lp1670
sS'PREINDEMNIFICATION'
p1671
(lp1672
sS'PSYCHOTHERAPEUTICS'
p1673
(lp1674
sS'NONEXEMPLIFICATIOR'
p1675
(lp1676
sS'BARYTOSTRONTIANITE'
p1677
(lp1678
sS'SPINULOSOGRANULATE'
p1679
(lp1680
sS'PSEUDOANTHROPOLOGY'
p1681
(lp1682
sS'ASTRAGALOCALCANEAL'
p1683
(lp1684
s.