(dp0
S'BE'
p1
(lp2
S'AE'
p3
aS'BA'
p4
aS'BO'
p5
aS'BU'
p6
aS'BU'
p7
aS'BY'
p8
aS'CE'
p9
aS'DE'
p10
aS'FE'
p11
aS'GE'
p12
aS'GE'
p13
aS'HE'
p14
aS'IE'
p15
aS'ME'
p16
aS'NE'
p17
aS'OE'
p18
aS'RE'
p19
aS'SE'
p20
aS'TE'
p21
aS'WE'
p22
aS'YE'
p23
asg22
(lp24
g3
ag1
ag9
ag10
ag11
ag12
ag13
ag14
ag15
ag16
ag17
ag18
ag19
ag20
ag21
aS'WA'
p25
aS'WA'
p26
aS'WI'
p27
aS'WO'
p28
aS'WU'
p29
aS'WY'
p30
ag23
asg4
(lp31
S'AA'
p32
ag1
ag5
ag6
ag7
ag8
aS'CA'
p33
aS'DA'
p34
aS'EA'
p35
aS'FA'
p36
aS'GA'
p37
aS'GA'
p38
aS'HA'
p39
aS'KA'
p40
aS'LA'
p41
aS'MA'
p42
aS'MA'
p43
aS'NA'
p44
aS'PA'
p45
aS'RA'
p46
aS'SA'
p47
aS'TA'
p48
ag25
ag26
aS'YA'
p49
aS'ZA'
p50
asg25
(lp51
g32
ag32
ag4
ag4
ag33
ag33
ag34
ag34
ag35
ag35
ag36
ag36
ag37
ag37
ag38
ag38
ag39
ag39
ag40
ag40
ag41
ag41
ag42
ag42
ag43
ag43
ag44
ag44
ag45
ag45
ag46
ag46
ag47
ag47
ag48
ag48
ag22
ag27
ag28
ag29
ag30
ag49
ag50
ag22
ag27
ag28
ag29
ag30
ag49
ag50
asg28
(lp52
S'AO'
p53
ag5
aS'DO'
p54
aS'FO'
p55
aS'GO'
p56
aS'HO'
p57
aS'HO'
p58
aS'IO'
p59
aS'IO'
p60
aS'JO'
p61
aS'JO'
p62
aS'KO'
p63
aS'KO'
p64
aS'LO'
p65
aS'LO'
p66
aS'MO'
p67
aS'MO'
p68
aS'NO'
p69
aS'NO'
p70
aS'PO'
p71
aS'PO'
p72
aS'RO'
p73
aS'SO'
p74
aS'TO'
p75
ag25
ag26
ag22
ag27
ag29
ag30
aS'YO'
p76
aS'ZO'
p77
asS'JU'
p78
(lp79
g6
ag7
aS'EU'
p80
aS'FU'
p81
aS'HU'
p82
aS'JI'
p83
ag61
ag62
aS'LU'
p84
aS'MU'
p85
aS'NU'
p86
aS'PU'
p87
aS'TU'
p88
aS'VU'
p89
ag29
asg5
(lp90
g53
ag4
ag1
ag6
ag7
ag8
ag54
ag55
ag56
ag57
ag58
ag59
ag60
ag61
ag62
ag63
ag64
ag65
ag66
ag67
ag68
ag69
ag70
ag71
ag72
ag73
ag74
ag75
ag28
ag76
ag77
asg27
(lp91
S'AI'
p92
aS'DI'
p93
aS'FI'
p94
aS'GI'
p95
aS'HI'
p96
ag83
aS'LI'
p97
aS'MI'
p98
aS'NI'
p99
aS'PI'
p100
aS'SI'
p101
aS'TI'
p102
aS'TI'
p103
ag25
ag26
ag22
ag28
ag29
ag30
aS'XI'
p104
asg6
(lp105
g4
ag4
ag1
ag1
ag5
ag5
ag8
ag80
ag81
ag82
ag78
ag84
ag85
ag86
ag87
ag88
ag89
ag29
ag8
ag80
ag81
ag82
ag78
ag84
ag85
ag86
ag87
ag88
ag89
ag29
asg29
(lp106
g6
ag7
ag80
ag81
ag82
ag78
ag84
ag85
ag86
ag87
ag88
ag89
ag25
ag26
ag22
ag27
ag28
ag30
asg61
(lp107
g53
ag53
ag5
ag5
ag54
ag54
ag55
ag55
ag56
ag56
ag57
ag57
ag58
ag58
ag59
ag59
ag60
ag60
ag83
ag83
ag78
ag63
ag64
ag65
ag66
ag67
ag68
ag69
ag70
ag71
ag72
ag73
ag74
ag75
ag28
ag76
ag77
ag78
ag63
ag64
ag65
ag66
ag67
ag68
ag69
ag70
ag71
ag72
ag73
ag74
ag75
ag28
ag76
ag77
asg83
(lp108
g92
ag93
ag94
ag95
ag96
ag61
ag62
ag78
ag97
ag98
ag99
ag100
ag101
ag102
ag103
ag27
ag104
asg8
(lp109
S'AY'
p110
aS'AY'
p111
ag4
ag1
ag5
ag6
ag7
aS'EY'
p112
aS'HY'
p113
aS'LY'
p114
aS'MY'
p115
ag30
asg30
(lp116
g110
ag111
ag8
ag112
ag113
ag114
ag115
ag25
ag26
ag22
ag27
ag28
ag29
asg81
(lp117
g6
ag7
ag80
ag36
ag11
ag94
ag55
ag82
ag78
ag84
ag85
ag86
ag87
ag88
ag89
ag29
asg19
(lp118
g3
ag1
ag9
ag10
ag11
ag12
ag13
ag14
ag15
ag16
ag17
ag18
ag46
ag73
ag20
ag21
ag22
ag23
asg46
(lp119
g32
ag4
ag33
ag34
ag35
ag36
ag37
ag38
ag39
ag40
ag41
ag42
ag43
ag44
ag45
ag19
ag73
ag47
ag48
ag25
ag26
ag49
ag50
asg73
(lp120
g53
ag5
ag54
ag55
ag56
ag57
ag58
ag59
ag60
ag61
ag62
ag63
ag64
ag65
ag66
ag67
ag68
ag69
ag70
ag71
ag72
ag46
ag19
ag74
ag75
ag28
ag76
ag77
asg12
(lp121
g3
ag3
ag1
ag1
ag9
ag9
ag10
ag10
ag11
ag11
ag37
ag37
ag38
ag38
ag95
ag56
ag14
ag15
ag16
ag17
ag18
ag19
ag20
ag21
ag22
ag23
ag95
ag56
ag14
ag15
ag16
ag17
ag18
ag19
ag20
ag21
ag22
ag23
asg37
(lp122
g32
ag32
ag4
ag4
ag33
ag33
ag34
ag34
ag35
ag35
ag36
ag36
ag12
ag13
ag95
ag56
ag39
ag40
ag41
ag42
ag43
ag44
ag45
ag46
ag47
ag48
ag25
ag26
ag49
ag50
ag12
ag13
ag95
ag56
ag39
ag40
ag41
ag42
ag43
ag44
ag45
ag46
ag47
ag48
ag25
ag26
ag49
ag50
asg56
(lp123
g53
ag5
ag54
ag55
ag37
ag38
ag12
ag13
ag95
ag57
ag58
ag59
ag60
ag61
ag62
ag63
ag64
ag65
ag66
ag67
ag68
ag69
ag70
ag71
ag72
ag73
ag74
ag75
ag28
ag76
ag77
asg95
(lp124
g92
ag93
ag94
ag37
ag38
ag12
ag13
ag56
ag96
ag83
ag97
ag98
ag99
ag100
ag101
ag102
ag103
ag27
ag104
asS'ON'
p125
(lp126
S'AN'
p127
aS'EN'
p128
aS'IN'
p129
aS'OD'
p130
aS'OD'
p131
ag18
aS'OF'
p132
aS'OG'
p133
aS'OH'
p134
aS'OK'
p135
aS'OM'
p136
aS'OR'
p137
aS'OS'
p138
aS'OS'
p139
aS'OW'
p140
aS'OX'
p141
aS'UN'
p142
aS'YN'
p143
asg136
(lp144
S'AM'
p145
aS'EM'
p146
aS'EM'
p147
ag130
ag131
ag18
ag132
ag133
ag134
ag135
ag125
ag137
ag138
ag139
ag140
ag141
aS'UM'
p148
aS'YM'
p149
asg135
(lp150
S'AK'
p151
ag130
ag131
ag18
ag132
ag133
ag134
ag136
ag125
ag137
ag138
ag139
ag140
ag141
asg134
(lp152
S'AH'
p153
aS'AH'
p154
aS'EH'
p155
ag130
ag131
ag18
ag132
ag133
ag135
ag136
ag125
ag137
ag138
ag139
ag140
ag141
aS'SH'
p156
aS'TH'
p157
asg133
(lp158
g130
ag131
ag18
ag132
ag134
ag135
ag136
ag125
ag137
ag138
ag139
ag140
ag141
aS'UG'
p159
asg132
(lp160
S'IF'
p161
ag130
ag131
ag18
ag133
ag134
ag135
ag136
ag125
ag137
ag138
ag139
ag140
ag141
asg18
(lp162
g3
ag1
ag9
ag10
ag11
ag12
ag13
ag14
ag15
ag16
ag17
ag130
ag131
ag132
ag133
ag134
ag135
ag136
ag125
ag137
ag138
ag139
ag140
ag141
ag19
ag20
ag21
ag22
ag23
asg130
(lp163
S'AD'
p164
ag164
aS'ED'
p165
ag165
aS'ID'
p166
ag166
ag18
ag132
ag133
ag134
ag135
ag136
ag125
ag137
ag138
ag139
ag140
ag141
aS'TD'
p167
aS'UD'
p168
ag18
ag132
ag133
ag134
ag135
ag136
ag125
ag137
ag138
ag139
ag140
ag141
ag167
ag168
asg141
(lp169
S'AX'
p170
aS'EX'
p171
ag130
ag131
ag18
ag132
ag133
ag134
ag135
ag136
ag125
ag137
ag138
ag139
ag140
asg140
(lp172
S'AW'
p173
ag130
ag131
ag18
ag132
ag133
ag134
ag135
ag136
ag125
ag137
ag138
ag139
ag141
asg114
(lp174
g110
ag111
ag8
ag112
ag113
ag41
ag97
ag65
ag66
ag84
ag115
ag30
asg138
(lp175
S'AS'
p176
ag176
aS'AS'
p177
ag177
aS'ES'
p178
ag178
aS'IS'
p179
ag179
ag130
ag130
ag131
ag131
ag18
ag18
ag132
ag132
ag133
ag133
ag134
ag134
ag135
ag135
ag136
ag136
ag125
ag125
ag137
ag137
ag140
ag141
aS'US'
p180
ag140
ag141
ag180
asg137
(lp181
S'AR'
p182
aS'ER'
p183
aS'MR'
p184
ag130
ag131
ag18
ag132
ag133
ag134
ag135
ag136
ag125
ag138
ag139
ag140
ag141
aS'UR'
p185
aS'YR'
p186
asg113
(lp187
g110
ag111
ag8
ag112
ag39
ag14
ag96
ag57
ag58
ag82
ag114
ag115
ag30
asg82
(lp188
g6
ag7
ag80
ag81
ag39
ag14
ag96
ag57
ag58
ag113
ag78
ag84
ag85
ag86
ag87
ag88
ag89
ag29
asg96
(lp189
g92
ag93
ag94
ag95
ag39
ag14
ag57
ag58
ag82
ag113
ag83
ag97
ag98
ag99
ag100
ag101
ag102
ag103
ag27
ag104
asg57
(lp190
g53
ag53
ag5
ag5
ag54
ag54
ag55
ag55
ag56
ag56
ag39
ag39
ag14
ag14
ag96
ag96
ag82
ag113
ag59
ag60
ag61
ag62
ag63
ag64
ag65
ag66
ag67
ag68
ag69
ag70
ag71
ag72
ag73
ag74
ag75
ag28
ag76
ag77
ag82
ag113
ag59
ag60
ag61
ag62
ag63
ag64
ag65
ag66
ag67
ag68
ag69
ag70
ag71
ag72
ag73
ag74
ag75
ag28
ag76
ag77
asg39
(lp191
g32
ag4
ag33
ag34
ag35
ag36
ag37
ag38
ag14
ag96
ag57
ag58
ag82
ag113
ag40
ag41
ag42
ag43
ag44
ag45
ag46
ag47
ag48
ag25
ag26
ag49
ag50
asg14
(lp192
g3
ag1
ag9
ag10
ag11
ag12
ag13
ag39
ag96
ag57
ag58
ag82
ag113
ag15
ag16
ag17
ag18
ag19
ag20
ag21
ag22
ag23
asg87
(lp193
g6
ag7
ag80
ag81
ag82
ag78
ag84
ag85
ag86
ag45
ag100
ag71
ag72
ag88
ag89
ag29
asg45
(lp194
g32
ag4
ag33
ag34
ag35
ag36
ag37
ag38
ag39
ag40
ag41
ag42
ag43
ag44
ag100
ag71
ag72
ag87
ag46
ag47
ag48
ag25
ag26
ag49
ag50
asg100
(lp195
g92
ag93
ag94
ag95
ag96
ag83
ag97
ag98
ag99
ag45
ag71
ag72
ag87
ag101
ag102
ag103
ag27
ag104
asg71
(lp196
g53
ag53
ag5
ag5
ag54
ag54
ag55
ag55
ag56
ag56
ag57
ag57
ag58
ag58
ag59
ag59
ag60
ag60
ag61
ag61
ag62
ag62
ag63
ag63
ag64
ag64
ag65
ag65
ag66
ag66
ag67
ag67
ag68
ag68
ag69
ag69
ag70
ag70
ag45
ag45
ag100
ag100
ag87
ag73
ag74
ag75
ag28
ag76
ag77
ag87
ag73
ag74
ag75
ag28
ag76
ag77
asg146
(lp197
g145
ag145
ag35
ag35
ag165
ag165
ag155
ag155
aS'EL'
p198
ag198
ag128
ag183
ag178
ag80
ag171
ag112
ag136
ag148
ag149
ag128
ag183
ag178
ag80
ag171
ag112
ag136
ag148
ag149
asg198
(lp199
S'AL'
p200
aS'AL'
p201
ag35
ag165
ag155
ag146
ag147
ag128
ag183
ag178
ag80
ag171
ag112
asg128
(lp202
g127
ag35
ag165
ag155
ag198
ag146
ag147
ag183
ag178
ag80
ag171
ag112
ag129
ag125
ag142
ag143
asg155
(lp203
g153
ag154
ag35
ag165
ag198
ag146
ag147
ag128
ag183
ag178
ag80
ag171
ag112
ag134
ag156
ag157
asg165
(lp204
g164
ag35
ag155
ag198
ag146
ag147
ag128
ag183
ag178
ag80
ag171
ag112
ag166
ag130
ag131
ag167
ag168
asg35
(lp205
g32
ag4
ag33
ag34
ag165
ag155
ag198
ag146
ag147
ag128
ag183
ag178
ag80
ag171
ag112
ag36
ag37
ag38
ag39
ag40
ag41
ag42
ag43
ag44
ag45
ag46
ag47
ag48
ag25
ag26
ag49
ag50
asg50
(lp206
g32
ag4
ag33
ag34
ag35
ag36
ag37
ag38
ag39
ag40
ag41
ag42
ag43
ag44
ag45
ag46
ag47
ag48
ag25
ag26
ag49
ag77
asS'IT'
p207
(lp208
S'AT'
p209
ag166
ag15
ag161
ag129
ag59
ag60
ag179
aS'ST'
p210
aS'UT'
p211
asg112
(lp212
g110
ag111
ag8
ag35
ag165
ag155
ag198
ag146
ag147
ag128
ag183
ag178
ag80
ag171
ag113
ag114
ag115
ag30
asg171
(lp213
g170
ag35
ag165
ag155
ag198
ag146
ag147
ag128
ag183
ag178
ag80
ag112
ag141
asg80
(lp214
g6
ag7
ag35
ag165
ag155
ag198
ag146
ag147
ag128
ag183
ag178
ag171
ag112
ag81
ag82
ag78
ag84
ag85
ag86
ag87
ag88
ag89
ag29
asg178
(lp215
g176
ag177
ag35
ag165
ag155
ag198
ag146
ag147
ag128
ag183
ag80
ag171
ag112
ag179
ag138
ag139
ag180
asg183
(lp216
g182
ag35
ag165
ag155
ag198
ag146
ag147
ag128
ag178
ag80
ag171
ag112
ag184
ag137
ag185
ag186
asg16
(lp217
g3
ag1
ag9
ag10
ag11
ag12
ag13
ag14
ag15
ag42
ag43
ag98
ag67
ag68
ag184
ag85
ag115
ag17
ag18
ag19
ag20
ag21
ag22
ag23
asg42
(lp218
g32
ag32
ag4
ag4
ag33
ag33
ag34
ag34
ag35
ag35
ag36
ag36
ag37
ag37
ag38
ag38
ag39
ag39
ag40
ag40
ag41
ag41
ag16
ag98
ag67
ag68
ag184
ag85
ag115
ag44
ag45
ag46
ag47
ag48
ag25
ag26
ag49
ag50
ag16
ag98
ag67
ag68
ag184
ag85
ag115
ag44
ag45
ag46
ag47
ag48
ag25
ag26
ag49
ag50
asg211
(lp219
g209
ag207
ag210
ag168
ag159
ag148
ag142
aS'UP'
p220
ag185
ag180
asg67
(lp221
g53
ag53
ag5
ag5
ag54
ag54
ag55
ag55
ag56
ag56
ag57
ag57
ag58
ag58
ag59
ag59
ag60
ag60
ag61
ag61
ag62
ag62
ag63
ag63
ag64
ag64
ag65
ag65
ag66
ag66
ag42
ag42
ag43
ag43
ag16
ag16
ag98
ag98
ag184
ag85
ag115
ag69
ag70
ag71
ag72
ag73
ag74
ag75
ag28
ag76
ag77
ag184
ag85
ag115
ag69
ag70
ag71
ag72
ag73
ag74
ag75
ag28
ag76
ag77
asg98
(lp222
g92
ag93
ag94
ag95
ag96
ag83
ag97
ag42
ag43
ag16
ag67
ag68
ag184
ag85
ag115
ag99
ag100
ag101
ag102
ag103
ag27
ag104
asg220
(lp223
g168
ag159
ag148
ag142
ag185
ag180
ag211
asg180
(lp224
g176
ag177
ag178
ag179
ag138
ag139
ag168
ag159
ag148
ag142
ag220
ag185
ag211
asg185
(lp225
g182
ag183
ag184
ag137
ag168
ag159
ag148
ag142
ag220
ag180
ag211
ag186
asg148
(lp226
g145
ag146
ag147
ag136
ag168
ag159
ag142
ag220
ag185
ag180
ag211
ag149
asg142
(lp227
g127
ag128
ag129
ag125
ag168
ag159
ag148
ag220
ag185
ag180
ag211
ag143
asg184
(lp228
g182
ag183
ag42
ag43
ag16
ag98
ag67
ag68
ag85
ag115
ag137
ag185
ag186
asg168
(lp229
g164
ag165
ag166
ag130
ag131
ag167
ag159
ag148
ag142
ag220
ag185
ag180
ag211
asg159
(lp230
g133
ag168
ag148
ag142
ag220
ag185
ag180
ag211
asg115
(lp231
g110
ag111
ag8
ag112
ag113
ag114
ag42
ag43
ag16
ag98
ag67
ag68
ag184
ag85
ag30
asg89
(lp232
g6
ag7
ag80
ag81
ag82
ag78
ag84
ag85
ag86
ag87
ag88
ag29
asg59
(lp233
g53
ag53
ag5
ag5
ag54
ag54
ag55
ag55
ag56
ag56
ag57
ag57
ag58
ag58
ag166
ag166
ag15
ag15
ag161
ag161
ag129
ag129
ag179
ag207
ag61
ag62
ag63
ag64
ag65
ag66
ag67
ag68
ag69
ag70
ag71
ag72
ag73
ag74
ag75
ag28
ag76
ag77
ag179
ag207
ag61
ag62
ag63
ag64
ag65
ag66
ag67
ag68
ag69
ag70
ag71
ag72
ag73
ag74
ag75
ag28
ag76
ag77
asg36
(lp234
g32
ag4
ag33
ag34
ag35
ag11
ag94
ag55
ag81
ag37
ag38
ag39
ag40
ag41
ag42
ag43
ag44
ag45
ag46
ag47
ag48
ag25
ag26
ag49
ag50
asg11
(lp235
g3
ag1
ag9
ag10
ag36
ag94
ag55
ag81
ag12
ag13
ag14
ag15
ag16
ag17
ag18
ag19
ag20
ag21
ag22
ag23
asg94
(lp236
g92
ag93
ag36
ag11
ag55
ag81
ag95
ag96
ag83
ag97
ag98
ag99
ag100
ag101
ag102
ag103
ag27
ag104
asg55
(lp237
g53
ag5
ag54
ag36
ag11
ag94
ag81
ag56
ag57
ag58
ag59
ag60
ag61
ag62
ag63
ag64
ag65
ag66
ag67
ag68
ag69
ag70
ag71
ag72
ag73
ag74
ag75
ag28
ag76
ag77
asg179
(lp238
g176
ag177
ag178
ag166
ag15
ag161
ag129
ag59
ag60
ag207
ag138
ag139
ag180
asg99
(lp239
g92
ag93
ag94
ag95
ag96
ag83
ag97
ag98
ag44
ag17
ag69
ag70
ag86
ag100
ag101
ag102
ag103
ag27
ag104
asg69
(lp240
g53
ag53
ag5
ag5
ag54
ag54
ag55
ag55
ag56
ag56
ag57
ag57
ag58
ag58
ag59
ag59
ag60
ag60
ag61
ag61
ag62
ag62
ag63
ag63
ag64
ag64
ag65
ag65
ag66
ag66
ag67
ag67
ag68
ag68
ag44
ag44
ag17
ag17
ag99
ag99
ag86
ag71
ag72
ag73
ag74
ag75
ag28
ag76
ag77
ag86
ag71
ag72
ag73
ag74
ag75
ag28
ag76
ag77
asg44
(lp241
g32
ag4
ag33
ag34
ag35
ag36
ag37
ag38
ag39
ag40
ag41
ag42
ag43
ag17
ag99
ag69
ag70
ag86
ag45
ag46
ag47
ag48
ag25
ag26
ag49
ag50
asg143
(lp242
g127
ag128
ag129
ag125
ag142
ag49
ag23
ag149
ag76
ag186
asg17
(lp243
g3
ag1
ag9
ag10
ag11
ag12
ag13
ag14
ag15
ag16
ag44
ag99
ag69
ag70
ag86
ag18
ag19
ag20
ag21
ag22
ag23
asg86
(lp244
g6
ag7
ag80
ag81
ag82
ag78
ag84
ag85
ag44
ag17
ag99
ag69
ag70
ag87
ag88
ag89
ag29
asg104
(lp245
g92
ag93
ag94
ag95
ag96
ag83
ag97
ag98
ag99
ag100
ag101
ag102
ag103
ag27
asg33
(lp246
g32
ag4
ag9
ag34
ag35
ag36
ag37
ag38
ag39
ag40
ag41
ag42
ag43
ag44
ag45
ag46
ag47
ag48
ag25
ag26
ag49
ag50
asg9
(lp247
g3
ag1
ag33
ag10
ag11
ag12
ag13
ag14
ag15
ag16
ag17
ag18
ag19
ag20
ag21
ag22
ag23
asg40
(lp248
g32
ag4
ag33
ag34
ag35
ag36
ag37
ag38
ag39
ag63
ag64
ag41
ag42
ag43
ag44
ag45
ag46
ag47
ag48
ag25
ag26
ag49
ag50
asg63
(lp249
g53
ag53
ag5
ag5
ag54
ag54
ag55
ag55
ag56
ag56
ag57
ag57
ag58
ag58
ag59
ag59
ag60
ag60
ag61
ag61
ag62
ag62
ag40
ag40
ag65
ag66
ag67
ag68
ag69
ag70
ag71
ag72
ag73
ag74
ag75
ag28
ag76
ag77
ag65
ag66
ag67
ag68
ag69
ag70
ag71
ag72
ag73
ag74
ag75
ag28
ag76
ag77
asg210
(lp250
g209
ag207
ag47
ag20
ag156
ag101
ag74
ag211
asg101
(lp251
g92
ag93
ag94
ag95
ag96
ag83
ag97
ag98
ag99
ag100
ag47
ag20
ag156
ag74
ag210
ag102
ag103
ag27
ag104
asg156
(lp252
g153
ag154
ag155
ag134
ag47
ag20
ag101
ag74
ag210
ag157
asg74
(lp253
g53
ag5
ag54
ag55
ag56
ag57
ag58
ag59
ag60
ag61
ag62
ag63
ag64
ag65
ag66
ag67
ag68
ag69
ag70
ag71
ag72
ag73
ag47
ag20
ag156
ag101
ag210
ag75
ag28
ag76
ag77
asg47
(lp254
g32
ag4
ag33
ag34
ag35
ag36
ag37
ag38
ag39
ag40
ag41
ag42
ag43
ag44
ag45
ag46
ag20
ag156
ag101
ag74
ag210
ag48
ag25
ag26
ag49
ag50
asg20
(lp255
g3
ag1
ag9
ag10
ag11
ag12
ag13
ag14
ag15
ag16
ag17
ag18
ag19
ag47
ag156
ag101
ag74
ag210
ag21
ag22
ag23
asg54
(lp256
g53
ag5
ag34
ag10
ag93
ag55
ag56
ag57
ag58
ag59
ag60
ag61
ag62
ag63
ag64
ag65
ag66
ag67
ag68
ag69
ag70
ag71
ag72
ag73
ag74
ag75
ag28
ag76
ag77
asg149
(lp257
g145
ag146
ag147
ag136
ag148
ag49
ag23
ag143
ag76
ag186
asg76
(lp258
g53
ag5
ag54
ag55
ag56
ag57
ag58
ag59
ag60
ag61
ag62
ag63
ag64
ag65
ag66
ag67
ag68
ag69
ag70
ag71
ag72
ag73
ag74
ag75
ag28
ag49
ag23
ag149
ag143
ag186
ag77
asg93
(lp259
g92
ag34
ag10
ag54
ag94
ag95
ag96
ag83
ag97
ag98
ag99
ag100
ag101
ag102
ag103
ag27
ag104
asg49
(lp260
g32
ag4
ag33
ag34
ag35
ag36
ag37
ag38
ag39
ag40
ag41
ag42
ag43
ag44
ag45
ag46
ag47
ag48
ag25
ag26
ag23
ag149
ag143
ag76
ag186
ag50
asg10
(lp261
g3
ag1
ag9
ag34
ag93
ag54
ag11
ag12
ag13
ag14
ag15
ag16
ag17
ag18
ag19
ag20
ag21
ag22
ag23
asg23
(lp262
g3
ag1
ag9
ag10
ag11
ag12
ag13
ag14
ag15
ag16
ag17
ag18
ag19
ag20
ag21
ag22
ag49
ag149
ag143
ag76
ag186
asg34
(lp263
g32
ag4
ag33
ag10
ag93
ag54
ag35
ag36
ag37
ag38
ag39
ag40
ag41
ag42
ag43
ag44
ag45
ag46
ag47
ag48
ag25
ag26
ag49
ag50
asg186
(lp264
g182
ag183
ag184
ag137
ag185
ag49
ag23
ag149
ag143
ag76
asg85
(lp265
g6
ag7
ag80
ag81
ag82
ag78
ag84
ag42
ag43
ag16
ag98
ag67
ag68
ag184
ag115
ag86
ag87
ag88
ag89
ag29
asg41
(lp266
g32
ag4
ag33
ag34
ag35
ag36
ag37
ag38
ag39
ag40
ag97
ag65
ag66
ag84
ag114
ag42
ag43
ag44
ag45
ag46
ag47
ag48
ag25
ag26
ag49
ag50
asg65
(lp267
g53
ag53
ag5
ag5
ag54
ag54
ag55
ag55
ag56
ag56
ag57
ag57
ag58
ag58
ag59
ag59
ag60
ag60
ag61
ag61
ag62
ag62
ag63
ag63
ag64
ag64
ag41
ag41
ag97
ag97
ag84
ag114
ag67
ag68
ag69
ag70
ag71
ag72
ag73
ag74
ag75
ag28
ag76
ag77
ag84
ag114
ag67
ag68
ag69
ag70
ag71
ag72
ag73
ag74
ag75
ag28
ag76
ag77
asg88
(lp268
g6
ag7
ag80
ag81
ag82
ag78
ag84
ag85
ag86
ag87
ag48
ag167
ag21
ag157
ag102
ag103
ag75
ag89
ag29
asg97
(lp269
g92
ag93
ag94
ag95
ag96
ag83
ag41
ag65
ag66
ag84
ag114
ag98
ag99
ag100
ag101
ag102
ag103
ag27
ag104
asg75
(lp270
g53
ag5
ag54
ag55
ag56
ag57
ag58
ag59
ag60
ag61
ag62
ag63
ag64
ag65
ag66
ag67
ag68
ag69
ag70
ag71
ag72
ag73
ag74
ag48
ag167
ag21
ag157
ag102
ag103
ag88
ag28
ag76
ag77
asg84
(lp271
g6
ag7
ag80
ag81
ag82
ag78
ag41
ag97
ag65
ag66
ag114
ag85
ag86
ag87
ag88
ag89
ag29
asg157
(lp272
g153
ag154
ag155
ag134
ag156
ag48
ag167
ag21
ag102
ag103
ag75
ag88
asg102
(lp273
g92
ag92
ag93
ag93
ag94
ag94
ag95
ag95
ag96
ag96
ag83
ag83
ag97
ag97
ag98
ag98
ag99
ag99
ag100
ag100
ag101
ag101
ag48
ag48
ag167
ag167
ag21
ag21
ag157
ag157
ag75
ag88
ag27
ag104
ag75
ag88
ag27
ag104
asg167
(lp274
g164
ag165
ag166
ag130
ag131
ag48
ag21
ag157
ag102
ag103
ag75
ag88
ag168
asg21
(lp275
g3
ag1
ag9
ag10
ag11
ag12
ag13
ag14
ag15
ag16
ag17
ag18
ag19
ag20
ag48
ag167
ag157
ag102
ag103
ag75
ag88
ag22
ag23
asg48
(lp276
g32
ag4
ag33
ag34
ag35
ag36
ag37
ag38
ag39
ag40
ag41
ag42
ag43
ag44
ag45
ag46
ag47
ag167
ag21
ag157
ag102
ag103
ag75
ag88
ag25
ag26
ag49
ag50
asg32
(lp277
S'AB'
p278
ag164
ag3
ag153
ag154
ag92
ag151
ag200
ag201
ag145
ag127
ag53
ag182
ag176
ag177
ag209
ag173
ag170
ag110
ag111
ag4
ag33
ag34
ag35
ag36
ag37
ag38
ag39
ag40
ag41
ag42
ag43
ag44
ag45
ag46
ag47
ag48
ag25
ag26
ag49
ag50
asg278
(lp279
g32
ag164
ag3
ag153
ag154
ag92
ag151
ag200
ag201
ag145
ag127
ag53
ag182
ag176
ag177
ag209
ag173
ag170
ag110
ag111
asg3
(lp280
g32
ag278
ag164
ag153
ag154
ag92
ag151
ag200
ag201
ag145
ag127
ag53
ag182
ag176
ag177
ag209
ag173
ag170
ag110
ag111
ag1
ag9
ag10
ag11
ag12
ag13
ag14
ag15
ag16
ag17
ag18
ag19
ag20
ag21
ag22
ag23
asg164
(lp281
g32
ag278
ag3
ag153
ag154
ag92
ag151
ag200
ag201
ag145
ag127
ag53
ag182
ag176
ag177
ag209
ag173
ag170
ag110
ag111
ag165
ag166
ag130
ag131
ag167
ag168
asg92
(lp282
g32
ag278
ag164
ag3
ag153
ag154
ag151
ag200
ag201
ag145
ag127
ag53
ag182
ag176
ag177
ag209
ag173
ag170
ag110
ag111
ag93
ag94
ag95
ag96
ag83
ag97
ag98
ag99
ag100
ag101
ag102
ag103
ag27
ag104
asg153
(lp283
g32
ag32
ag278
ag278
ag164
ag164
ag3
ag3
ag92
ag151
ag200
ag201
ag145
ag127
ag53
ag182
ag176
ag177
ag209
ag173
ag170
ag110
ag111
ag155
ag134
ag156
ag157
ag92
ag151
ag200
ag201
ag145
ag127
ag53
ag182
ag176
ag177
ag209
ag173
ag170
ag110
ag111
ag155
ag134
ag156
ag157
asg151
(lp284
g32
ag278
ag164
ag3
ag153
ag154
ag92
ag200
ag201
ag145
ag127
ag53
ag182
ag176
ag177
ag209
ag173
ag170
ag110
ag111
ag135
asg145
(lp285
g32
ag278
ag164
ag3
ag153
ag154
ag92
ag151
ag200
ag201
ag127
ag53
ag182
ag176
ag177
ag209
ag173
ag170
ag110
ag111
ag146
ag147
ag136
ag148
ag149
asg200
(lp286
g32
ag32
ag278
ag278
ag164
ag164
ag3
ag3
ag153
ag153
ag154
ag154
ag92
ag92
ag151
ag151
ag145
ag127
ag53
ag182
ag176
ag177
ag209
ag173
ag170
ag110
ag111
ag198
ag145
ag127
ag53
ag182
ag176
ag177
ag209
ag173
ag170
ag110
ag111
ag198
asg53
(lp287
g32
ag278
ag164
ag3
ag153
ag154
ag92
ag151
ag200
ag201
ag145
ag127
ag182
ag176
ag177
ag209
ag173
ag170
ag110
ag111
ag5
ag54
ag55
ag56
ag57
ag58
ag59
ag60
ag61
ag62
ag63
ag64
ag65
ag66
ag67
ag68
ag69
ag70
ag71
ag72
ag73
ag74
ag75
ag28
ag76
ag77
asg127
(lp288
g32
ag278
ag164
ag3
ag153
ag154
ag92
ag151
ag200
ag201
ag145
ag53
ag182
ag176
ag177
ag209
ag173
ag170
ag110
ag111
ag128
ag129
ag125
ag142
ag143
asg176
(lp289
g32
ag32
ag278
ag278
ag164
ag164
ag3
ag3
ag153
ag153
ag154
ag154
ag92
ag92
ag151
ag151
ag200
ag200
ag201
ag201
ag145
ag145
ag127
ag127
ag53
ag53
ag182
ag182
ag209
ag173
ag170
ag110
ag111
ag178
ag179
ag138
ag139
ag180
ag209
ag173
ag170
ag110
ag111
ag178
ag179
ag138
ag139
ag180
asg182
(lp290
g32
ag278
ag164
ag3
ag153
ag154
ag92
ag151
ag200
ag201
ag145
ag127
ag53
ag176
ag177
ag209
ag173
ag170
ag110
ag111
ag183
ag184
ag137
ag185
ag186
asg209
(lp291
g32
ag278
ag164
ag3
ag153
ag154
ag92
ag151
ag200
ag201
ag145
ag127
ag53
ag182
ag176
ag177
ag173
ag170
ag110
ag111
ag207
ag210
ag211
asg173
(lp292
g32
ag278
ag164
ag3
ag153
ag154
ag92
ag151
ag200
ag201
ag145
ag127
ag53
ag182
ag176
ag177
ag209
ag170
ag110
ag111
ag140
asg129
(lp293
g127
ag128
ag166
ag15
ag161
ag59
ag60
ag179
ag207
ag125
ag142
ag143
asg110
(lp294
g32
ag32
ag278
ag278
ag164
ag164
ag3
ag3
ag153
ag153
ag154
ag154
ag92
ag92
ag151
ag151
ag200
ag200
ag201
ag201
ag145
ag145
ag127
ag127
ag53
ag53
ag182
ag182
ag176
ag176
ag177
ag177
ag209
ag209
ag173
ag173
ag170
ag170
ag8
ag112
ag113
ag114
ag115
ag30
ag8
ag112
ag113
ag114
ag115
ag30
asg170
(lp295
g32
ag278
ag164
ag3
ag153
ag154
ag92
ag151
ag200
ag201
ag145
ag127
ag53
ag182
ag176
ag177
ag209
ag173
ag110
ag111
ag171
ag141
asg15
(lp296
g3
ag1
ag9
ag10
ag11
ag12
ag13
ag14
ag166
ag161
ag129
ag59
ag60
ag179
ag207
ag16
ag17
ag18
ag19
ag20
ag21
ag22
ag23
asg166
(lp297
g164
ag165
ag15
ag161
ag129
ag59
ag60
ag179
ag207
ag130
ag131
ag167
ag168
asg161
(lp298
g166
ag15
ag129
ag59
ag60
ag179
ag207
ag132
asg77
(lp299
g53
ag5
ag54
ag55
ag56
ag57
ag58
ag59
ag60
ag61
ag62
ag63
ag64
ag65
ag66
ag67
ag68
ag69
ag70
ag71
ag72
ag73
ag74
ag75
ag28
ag76
ag50
as.