(dp0
S'AGO'
p1
(lp2
S'AGY'
p3
aS'AHO'
p4
aS'AKO'
p5
aS'ALO'
p6
aS'ARO'
p7
aS'AVO'
p8
aS'AZO'
p9
aS'EGO'
p10
asS'SIR'
p11
(lp12
S'SIS'
p13
aS'SIS'
p14
aS'SIT'
p15
aS'SIX'
p16
aS'SUR'
p17
aS'WIR'
p18
asS'SAA'
p19
(lp20
S'SAB'
p21
aS'SAC'
p22
aS'SAC'
p23
aS'SAD'
p24
aS'SAG'
p25
aS'SAH'
p26
aS'SAI'
p27
aS'SAJ'
p28
aS'SAK'
p29
aS'SAL'
p30
aS'SAL'
p31
aS'SAM'
p32
aS'SAM'
p33
aS'SAN'
p34
aS'SAN'
p35
aS'SAO'
p36
aS'SAP'
p37
aS'SAR'
p38
aS'SAT'
p39
aS'SAW'
p40
aS'SAX'
p41
aS'SAY'
p42
aS'SEA'
p43
aS'SHA'
p44
aS'SIA'
p45
aS'SLA'
p46
aS'SMA'
p47
aS'SPA'
p48
aS'SWA'
p49
aS'TAA'
p50
asS'YIS'
p51
(lp52
S'YUS'
p53
asg15
(lp54
g16
aS'SOT'
p55
aS'TIT'
p56
aS'WIT'
p57
asS'ROD'
p58
(lp59
S'ROE'
p60
aS'ROG'
p61
aS'ROI'
p62
aS'ROK'
p63
aS'RON'
p64
aS'ROT'
p65
aS'ROW'
p66
aS'ROX'
p67
aS'ROY'
p68
aS'RUD'
p69
aS'SOD'
p70
aS'TOD'
p71
aS'TOD'
p72
aS'VOD'
p73
aS'WOD'
p74
asS'AGE'
p75
(lp76
g1
ag3
aS'AKE'
p77
aS'ALE'
p78
aS'AME'
p79
aS'APE'
p80
aS'ARE'
p81
aS'ASE'
p82
aS'ATE'
p83
aS'AVE'
p84
aS'AVE'
p85
aS'AWE'
p86
aS'AXE'
p87
aS'AYE'
p88
asg16
(lp89
sS'EON'
p90
(lp91
S'EYN'
p92
aS'FON'
p93
aS'GON'
p94
aS'HON'
p95
aS'ION'
p96
aS'JON'
p97
aS'KON'
p98
aS'MON'
p99
aS'MON'
p100
aS'NON'
p101
aS'PON'
p102
ag64
aS'SON'
p103
aS'SON'
p104
aS'TON'
p105
aS'WON'
p106
aS'YON'
p107
asS'AGA'
p108
(lp109
g75
ag1
ag3
aS'AHA'
p110
aS'AKA'
p111
aS'AKA'
p112
aS'ALA'
p113
aS'AMA'
p114
aS'ANA'
p115
aS'ANA'
p116
aS'APA'
p117
aS'ARA'
p118
aS'ASA'
p119
aS'ATA'
p120
aS'AVA'
p121
aS'AWA'
p122
asS'OFO'
p123
(lp124
S'OFT'
p125
aS'OHO'
p126
aS'OTO'
p127
asS'SIC'
p128
(lp129
S'SID'
p130
aS'SIE'
p131
aS'SIG'
p132
aS'SIL'
p133
aS'SIM'
p134
aS'SIN'
p135
aS'SIP'
p136
ag11
aS'SIR'
p137
ag13
ag14
ag15
ag16
aS'SOC'
p138
aS'TIC'
p139
aS'VIC'
p140
asS'YUH'
p141
(lp142
S'YUN'
p143
ag53
asS'TIN'
p144
(lp145
S'TIP'
p146
ag56
ag105
aS'TUN'
p147
aS'WIN'
p148
aS'WIN'
p149
aS'YIN'
p150
aS'YIN'
p151
asg136
(lp152
g11
ag137
ag13
ag14
ag15
ag16
aS'SOP'
p153
aS'SUP'
p154
ag146
aS'VIP'
p155
aS'YIP'
p156
aS'ZIP'
p157
asg132
(lp158
g133
ag134
ag135
ag136
ag11
ag137
ag13
ag14
ag15
ag16
aS'SOG'
p159
aS'TIG'
p160
aS'WIG'
p161
aS'ZIG'
p162
asg3
(lp163
S'ALY'
p164
aS'AMY'
p165
aS'AMY'
p166
aS'ANY'
p167
aS'ARY'
p168
asg130
(lp169
g131
ag132
ag133
ag134
ag135
ag136
ag11
ag137
ag13
ag14
ag15
ag16
ag70
aS'SUD'
p170
aS'SYD'
p171
aS'TID'
p172
aS'WID'
p173
aS'YID'
p174
asg92
(lp175
S'GYN'
p176
aS'WYN'
p177
asS'THY'
p178
(lp179
S'TOY'
p180
aS'TRY'
p181
aS'WHY'
p182
asg135
(lp183
g136
ag11
ag137
ag13
ag14
ag15
ag16
ag103
ag104
aS'SUN'
p184
ag144
ag148
ag149
ag150
ag151
asg134
(lp185
g135
ag136
ag11
ag137
ag13
ag14
ag15
ag16
aS'SUM'
p186
aS'TIM'
p187
aS'VIM'
p188
aS'WIM'
p189
asg133
(lp190
g134
ag135
ag136
ag11
ag137
ag13
ag14
ag15
ag16
aS'SOL'
p191
aS'SOL'
p192
aS'TIL'
p193
asS'TAT'
p194
(lp195
S'TAU'
p196
aS'TAV'
p197
aS'TAW'
p198
aS'TAX'
p199
aS'TAY'
p200
ag56
aS'TOT'
p201
aS'TST'
p202
aS'TUT'
p203
aS'TYT'
p204
aS'VAT'
p205
aS'WAT'
p206
aS'WAT'
p207
aS'YAT'
p208
aS'ZAT'
p209
asg67
(lp210
g68
aS'RUX'
p211
aS'TOX'
p212
aS'YOX'
p213
asg197
(lp214
g198
ag199
ag200
asg206
(lp215
S'WAW'
p216
aS'WAX'
p217
aS'WAY'
p218
aS'WET'
p219
ag57
aS'WOT'
p220
aS'WUT'
p221
ag208
ag209
asS'TAP'
p222
(lp223
S'TAR'
p224
ag194
aS'TAT'
p225
ag196
ag197
ag198
ag199
ag200
ag146
aS'TOP'
p226
aS'TUP'
p227
aS'WAP'
p228
aS'YAP'
p229
asg224
(lp230
g194
ag225
ag196
ag197
ag198
ag199
ag200
aS'TOR'
p231
aS'TOR'
p232
aS'TUR'
p233
aS'WAR'
p234
aS'YAR'
p235
aS'ZAR'
p236
asS'RED'
p237
(lp238
S'REE'
p239
aS'REE'
p240
aS'REF'
p241
aS'REG'
p242
aS'REH'
p243
aS'REL'
p244
aS'REP'
p245
aS'RET'
p246
aS'REV'
p247
aS'REX'
p248
aS'REX'
p249
aS'RID'
p250
ag58
aS'ROD'
p251
ag69
aS'TED'
p252
aS'TED'
p253
aS'WED'
p254
aS'YED'
p255
aS'ZED'
p256
asS'PUR'
p257
(lp258
S'PUS'
p259
aS'PUT'
p260
aS'PYR'
p261
ag17
ag233
aS'WUR'
p262
asg200
(lp263
g178
ag180
ag181
ag218
asS'JIB'
p264
(lp265
S'JIG'
p266
aS'JIM'
p267
aS'JIN'
p268
aS'JOB'
p269
aS'JOB'
p270
aS'MIB'
p271
aS'NIB'
p272
aS'RIB'
p273
aS'SIB'
p274
aS'TIB'
p275
asS'HEI'
p276
(lp277
S'HEM'
p278
aS'HEN'
p279
aS'HEP'
p280
aS'HER'
p281
aS'HET'
p282
aS'HEW'
p283
aS'HEX'
p284
aS'HEY'
p285
aS'HOI'
p286
aS'HSI'
p287
aS'HUI'
p288
aS'LEI'
p289
aS'NEI'
p290
aS'VEI'
p291
aS'WEI'
p292
asS'TAD'
p293
(lp294
S'TAE'
p295
aS'TAG'
p296
aS'TAI'
p297
aS'TAI'
p298
aS'TAJ'
p299
aS'TAL'
p300
aS'TAL'
p301
aS'TAM'
p302
aS'TAN'
p303
aS'TAO'
p304
aS'TAO'
p305
ag222
ag224
ag194
ag225
ag196
ag197
ag198
ag199
ag200
ag252
ag253
ag172
ag71
ag72
aS'WAD'
p306
aS'YAD'
p307
aS'ZAD'
p308
asg295
(lp309
g296
ag297
ag298
ag299
ag300
ag301
ag302
ag303
ag304
ag305
ag222
ag224
ag194
ag225
ag196
ag197
ag198
ag199
ag200
aS'TEE'
p310
aS'THE'
p311
aS'THE'
p312
aS'TIE'
p313
aS'TOE'
p314
aS'TUE'
p315
aS'TYE'
p316
aS'WAE'
p317
asg296
(lp318
g297
ag298
ag299
ag300
ag301
ag302
ag303
ag304
ag305
ag222
ag224
ag194
ag225
ag196
ag197
ag198
ag199
ag200
aS'TEG'
p319
ag160
aS'TOG'
p320
aS'TUG'
p321
aS'TYG'
p322
aS'VAG'
p323
aS'WAG'
p324
aS'ZAG'
p325
asg50
(lp326
S'TAB'
p327
aS'TAB'
p328
ag293
aS'TAD'
p329
ag295
ag296
ag297
ag298
ag299
ag300
ag301
ag302
ag303
ag304
ag305
ag222
ag224
ag194
ag225
ag196
ag197
ag198
ag199
ag200
aS'TEA'
p330
aS'THA'
p331
aS'TOA'
p332
aS'TRA'
p333
aS'TUA'
p334
aS'TWA'
p335
asg327
(lp336
g293
ag329
ag295
ag296
ag297
ag298
ag299
ag300
ag301
ag302
ag303
ag304
ag305
ag222
ag224
ag194
ag225
ag196
ag197
ag198
ag199
ag200
ag275
aS'TUB'
p337
aS'WAB'
p338
asg300
(lp339
g302
ag303
ag304
ag305
ag222
ag224
ag194
ag225
ag196
ag197
ag198
ag199
ag200
ag193
aS'TOL'
p340
aS'VAL'
p341
asg302
(lp342
g303
ag304
ag305
ag222
ag224
ag194
ag225
ag196
ag197
ag198
ag199
ag200
ag187
aS'TOM'
p343
aS'TUM'
p344
aS'YAM'
p345
asg303
(lp346
g304
ag305
ag222
ag224
ag194
ag225
ag196
ag197
ag198
ag199
ag200
aS'TEN'
p347
ag144
ag105
ag147
aS'VAN'
p348
aS'VAN'
p349
aS'WAN'
p350
aS'YAN'
p351
aS'ZAN'
p352
asg304
(lp353
g222
ag224
ag194
ag225
ag196
ag197
ag198
ag199
ag200
aS'THO'
p354
aS'THO'
p355
aS'TOO'
p356
aS'TWO'
p357
aS'YAO'
p358
asg53
(lp359
sS'KYU'
p360
(lp361
sS'FIR'
p362
(lp363
S'FIT'
p364
aS'FIX'
p365
aS'FOR'
p366
aS'FOR'
p367
aS'FUR'
p368
aS'FUR'
p369
aS'MIR'
p370
aS'PIR'
p371
ag11
ag137
ag18
asg266
(lp372
g267
ag268
aS'JOG'
p373
aS'JUG'
p374
aS'MIG'
p375
aS'NIG'
p376
aS'PIG'
p377
aS'RIG'
p378
ag132
ag160
ag161
ag162
asS'FIP'
p379
(lp380
g362
ag364
ag365
aS'FOP'
p381
aS'GIP'
p382
aS'HIP'
p383
aS'KIP'
p384
aS'LIP'
p385
aS'NIP'
p386
aS'NIP'
p387
aS'PIP'
p388
aS'RIP'
p389
ag136
ag146
ag155
ag156
ag157
asS'GIT'
p390
(lp391
S'GOT'
p392
aS'GUT'
p393
aS'HIT'
p394
aS'KIT'
p395
aS'KIT'
p396
aS'LIT'
p397
aS'NIT'
p398
aS'PIT'
p399
aS'RIT'
p400
ag15
ag56
ag57
asg348
(lp401
S'VAS'
p402
ag205
aS'VAU'
p403
ag350
ag351
ag352
asg341
(lp404
g348
ag349
ag402
ag205
ag403
aS'VOL'
p405
asg382
(lp406
g390
aS'GUP'
p407
aS'GYP'
p408
ag383
ag384
ag385
ag386
ag387
ag388
ag389
ag136
ag146
ag155
ag156
ag157
asg268
(lp409
g97
aS'JUN'
p410
aS'KIN'
p411
aS'LIN'
p412
aS'LIN'
p413
aS'MIN'
p414
aS'PIN'
p415
ag135
ag144
ag148
ag149
ag150
ag151
asS'WRO'
p416
(lp417
S'WRY'
p418
asg365
(lp419
S'FOX'
p420
aS'MIX'
p421
aS'NIX'
p422
aS'PIX'
p423
aS'RIX'
p424
ag16
asg267
(lp425
g268
aS'KIM'
p426
aS'KIM'
p427
aS'LIM'
p428
aS'MIM'
p429
aS'NIM'
p430
aS'PIM'
p431
aS'RIM'
p432
ag134
ag187
ag188
ag189
asg323
(lp433
S'VAI'
p434
ag341
ag348
ag349
ag402
ag205
ag403
aS'VOG'
p435
aS'VUG'
p436
ag324
ag325
asS'GYM'
p437
(lp438
g176
ag408
asS'FIB'
p439
(lp440
S'FID'
p441
aS'FIE'
p442
aS'FIG'
p443
aS'FIN'
p444
aS'FIN'
p445
ag379
ag362
ag364
ag365
aS'FOB'
p446
aS'FUB'
p447
aS'GIB'
p448
aS'GIB'
p449
ag264
ag271
ag272
ag273
ag274
ag275
asS'GIF'
p450
(lp451
S'GIG'
p452
aS'GIL'
p453
aS'GIM'
p454
aS'GIN'
p455
aS'GIO'
p456
ag382
ag390
aS'LIF'
p457
asS'GIE'
p458
(lp459
g450
ag452
ag453
ag454
ag455
ag456
ag382
ag390
aS'GUE'
p460
aS'HIE'
p461
aS'LIE'
p462
aS'PIE'
p463
aS'RIE'
p464
ag131
ag313
aS'VIE'
p465
asS'GID'
p466
(lp467
g458
ag450
ag452
ag453
ag454
ag455
ag456
ag382
ag390
aS'GOD'
p468
aS'GOD'
p469
aS'GUD'
p470
aS'LID'
p471
aS'MID'
p472
aS'NID'
p473
ag250
ag130
ag172
ag173
ag174
asS'URF'
p474
(lp475
S'URI'
p476
aS'URN'
p477
aS'URO'
p478
aS'URS'
p479
aS'URU'
p480
asg448
(lp481
g466
ag458
ag450
ag452
ag453
ag454
ag455
ag456
ag382
ag390
aS'GOB'
p482
ag264
ag271
ag272
ag273
ag274
ag275
asg441
(lp483
g442
ag443
ag444
ag445
ag379
ag362
ag364
ag365
aS'FOD'
p484
aS'FUD'
p485
ag466
ag471
ag472
ag473
ag250
ag130
ag172
ag173
ag174
asg442
(lp486
g443
ag444
ag445
ag379
ag362
ag364
ag365
aS'FOE'
p487
ag458
ag461
ag462
ag463
ag464
ag131
ag313
ag465
asg456
(lp488
g382
ag390
aS'GOO'
p489
aS'RIO'
p490
aS'RIO'
p491
asg402
(lp492
g205
ag403
aS'VIS'
p493
aS'WAS'
p494
aS'YAS'
p495
asg454
(lp496
g455
ag456
ag382
ag390
aS'GUM'
p497
aS'GUM'
p498
ag437
aS'HIM'
p499
ag267
ag426
ag427
ag428
ag429
ag430
ag431
ag432
ag134
ag187
ag188
ag189
asg453
(lp500
g454
ag455
ag456
ag382
ag390
aS'GOL'
p501
aS'GUL'
p502
aS'KIL'
p503
aS'MIL'
p504
aS'MIL'
p505
aS'NIL'
p506
aS'OIL'
p507
ag133
ag193
asg444
(lp508
g379
ag362
ag364
ag365
ag93
aS'FUN'
p509
ag455
aS'HIN'
p510
ag268
ag411
ag412
ag413
ag414
ag415
ag135
ag144
ag148
ag149
ag150
ag151
asS'OSC'
p511
(lp512
S'OSE'
p513
asg306
(lp514
g317
aS'WAF'
p515
ag324
aS'WAH'
p516
ag350
ag228
ag234
ag494
ag206
ag207
ag216
ag217
ag218
ag254
ag173
ag74
aS'WUD'
p517
ag307
ag308
asg418
(lp518
sS'YEZ'
p519
(lp520
sS'LAM'
p521
(lp522
S'LAN'
p523
aS'LAO'
p524
aS'LAP'
p525
aS'LAR'
p526
aS'LAR'
p527
aS'LAS'
p528
aS'LAT'
p529
aS'LAW'
p530
aS'LAX'
p531
aS'LAY'
p532
aS'LAZ'
p533
ag428
aS'LUM'
p534
aS'LUM'
p535
aS'MAM'
p536
aS'NAM'
p537
aS'OAM'
p538
aS'PAM'
p539
aS'PAM'
p540
aS'RAM'
p541
aS'RAM'
p542
ag32
ag33
ag302
ag345
asg523
(lp543
g524
ag525
ag526
ag527
ag528
ag529
ag530
ag531
ag532
ag533
aS'LEN'
p544
ag412
ag413
aS'MAN'
p545
aS'NAN'
p546
aS'NAN'
p547
aS'PAN'
p548
aS'PAN'
p549
aS'RAN'
p550
aS'RAN'
p551
ag34
ag35
ag303
ag348
ag349
ag350
ag351
ag352
asg110
(lp552
g4
aS'AHT'
p553
aS'AHU'
p554
ag111
ag112
ag113
ag114
ag115
ag116
ag117
ag118
ag119
ag120
ag121
ag122
aS'CHA'
p555
aS'DHA'
p556
aS'KHA'
p557
ag44
ag331
aS'WHA'
p558
asS'MAU'
p559
(lp560
S'MAW'
p561
aS'MAX'
p562
aS'MAY'
p563
aS'MAY'
p564
aS'MOU'
p565
aS'MRU'
p566
aS'PAU'
p567
ag196
ag403
asS'MAT'
p568
(lp569
g559
ag561
ag562
ag563
ag564
aS'MET'
p570
aS'MOT'
p571
aS'NAT'
p572
aS'OAT'
p573
aS'PAT'
p574
aS'PAT'
p575
aS'RAT'
p576
ag39
ag194
ag225
ag205
ag206
ag207
ag208
ag209
asg561
(lp577
g562
ag563
ag564
aS'MEW'
p578
aS'MOW'
p579
aS'NAW'
p580
aS'PAW'
p581
aS'RAW'
p582
ag40
ag198
ag216
aS'YAW'
p583
asg274
(lp584
g128
ag130
ag131
ag132
ag133
ag134
ag135
ag136
ag11
ag137
ag13
ag14
ag15
ag16
aS'SOB'
p585
aS'SUB'
p586
ag275
asS'LAD'
p587
(lp588
S'LAG'
p589
aS'LAI'
p590
aS'LAI'
p591
aS'LAK'
p592
aS'LAK'
p593
ag521
ag523
ag524
ag525
ag526
ag527
ag528
ag529
ag530
ag531
ag532
ag533
aS'LED'
p594
ag471
aS'LOD'
p595
aS'MAD'
p596
aS'PAD'
p597
aS'RAD'
p598
ag24
ag293
ag329
ag306
ag307
ag308
asg65
(lp599
g66
ag67
ag68
aS'RUT'
p600
ag55
ag201
ag220
aS'YOT'
p601
asg589
(lp602
g590
ag591
ag592
ag593
ag521
ag523
ag524
ag525
ag526
ag527
ag528
ag529
ag530
ag531
ag532
ag533
aS'LEG'
p603
aS'LOG'
p604
aS'LUG'
p605
aS'LUG'
p606
aS'MAG'
p607
aS'NAG'
p608
aS'RAG'
p609
ag25
ag296
ag323
ag324
ag325
asg4
(lp610
g553
ag554
ag5
ag6
ag7
ag8
ag9
aS'CHO'
p611
aS'MHO'
p612
ag126
aS'PHO'
p613
aS'RHO'
p614
aS'SHO'
p615
aS'SHO'
p616
ag354
ag355
aS'WHO'
p617
asS'LAB'
p618
(lp619
S'LAC'
p620
ag587
ag589
ag590
ag591
ag592
ag593
ag521
ag523
ag524
ag525
ag526
ag527
ag528
ag529
ag530
ag531
ag532
ag533
aS'LOB'
p621
aS'MAB'
p622
aS'NAB'
p623
aS'RAB'
p624
aS'RAB'
p625
ag21
ag327
ag328
ag338
asg620
(lp626
g587
ag589
ag590
ag591
ag592
ag593
ag521
ag523
ag524
ag525
ag526
ag527
ag528
ag529
ag530
ag531
ag532
ag533
aS'LUC'
p627
aS'MAC'
p628
aS'MAC'
p629
aS'PAC'
p630
ag22
ag23
aS'WAC'
p631
aS'ZAC'
p632
asS'RUB'
p633
(lp634
g69
aS'RUE'
p635
aS'RUG'
p636
aS'RUM'
p637
aS'RUM'
p638
aS'RUN'
p639
aS'RUS'
p640
ag600
ag211
ag586
ag337
asg628
(lp641
g596
aS'MAE'
p642
ag607
aS'MAH'
p643
aS'MAL'
p644
ag536
ag545
aS'MAO'
p645
aS'MAP'
p646
aS'MAR'
p647
aS'MAR'
p648
aS'MAS'
p649
ag568
aS'MAT'
p650
ag559
ag561
ag562
ag563
ag564
ag630
ag22
ag23
ag631
ag632
asS'OVA'
p651
(lp652
S'UVA'
p653
asg642
(lp654
g607
ag643
ag644
ag536
ag545
ag645
ag646
ag647
ag648
ag649
ag568
ag650
ag559
ag561
ag562
ag563
ag564
aS'MOE'
p655
aS'NAE'
p656
ag295
ag317
asg596
(lp657
g642
ag607
ag643
ag644
ag536
ag545
ag645
ag646
ag647
ag648
ag649
ag568
ag650
ag559
ag561
ag562
ag563
ag564
ag472
aS'MOD'
p658
aS'MUD'
p659
ag597
ag598
ag24
ag293
ag329
ag306
ag307
ag308
asg553
(lp660
g554
aS'AIT'
p661
aS'ALT'
p662
aS'AMT'
p663
aS'ANT'
p664
aS'APT'
p665
aS'ART'
p666
aS'ART'
p667
aS'AST'
p668
asg554
(lp669
S'AKU'
p670
aS'ARU'
p671
aS'AYU'
p672
aS'DHU'
p673
aS'KHU'
p674
aS'PHU'
p675
aS'SHU'
p676
asg529
(lp677
g530
ag531
ag532
ag533
aS'LET'
p678
ag397
aS'LOT'
p679
aS'LOT'
p680
aS'LUT'
p681
ag568
ag650
ag572
ag573
ag574
ag575
ag576
ag39
ag194
ag225
ag205
ag206
ag207
ag208
ag209
asg643
(lp682
g644
ag536
ag545
ag645
ag646
ag647
ag648
ag649
ag568
ag650
ag559
ag561
ag562
ag563
ag564
aS'PAH'
p683
aS'RAH'
p684
ag26
ag516
aS'YAH'
p685
asS'FEI'
p686
(lp687
S'FEN'
p688
aS'FET'
p689
aS'FEU'
p690
aS'FEW'
p691
aS'FEY'
p692
aS'FEZ'
p693
ag276
ag289
ag290
ag291
ag292
asg530
(lp694
g531
ag532
ag533
aS'LEW'
p695
aS'LEW'
p696
aS'LOW'
p697
ag561
ag580
ag581
ag582
ag40
ag198
ag216
ag583
asg536
(lp698
g545
ag645
ag646
ag647
ag648
ag649
ag568
ag650
ag559
ag561
ag562
ag563
ag564
aS'MEM'
p699
ag429
aS'MUM'
p700
ag537
ag538
ag539
ag540
ag541
ag542
ag32
ag33
ag302
ag345
asg644
(lp701
g536
ag545
ag645
ag646
ag647
ag648
ag649
ag568
ag650
ag559
ag561
ag562
ag563
ag564
aS'MEL'
p702
ag504
ag505
aS'PAL'
p703
ag30
ag31
ag300
ag301
ag341
asg526
(lp704
g528
ag529
ag530
ag531
ag532
ag533
aS'LER'
p705
aS'LUR'
p706
ag647
ag648
aS'NAR'
p707
aS'OAR'
p708
aS'PAR'
p709
ag38
ag224
ag234
ag235
ag236
asS'SNY'
p710
(lp711
S'SOY'
p712
aS'SPY'
p713
aS'SPY'
p714
aS'STY'
p715
asS'PUG'
p716
(lp717
S'PUL'
p718
aS'PUN'
p719
aS'PUP'
p720
ag257
ag259
ag260
ag636
ag321
ag436
asS'BEN'
p721
(lp722
S'BER'
p723
aS'BES'
p724
aS'BET'
p725
aS'BEY'
p726
aS'BIN'
p727
aS'BON'
p728
aS'BON'
p729
aS'BUN'
p730
aS'DEN'
p731
ag688
aS'GEN'
p732
ag279
aS'KEN'
p733
aS'KEN'
p734
ag544
aS'MEN'
p735
aS'PEN'
p736
aS'SEN'
p737
ag347
aS'WEN'
p738
aS'YEN'
p739
aS'ZEN'
p740
asg131
(lp741
g132
ag133
ag134
ag135
ag136
ag11
ag137
ag13
ag14
ag15
ag16
aS'SOE'
p742
aS'SUE'
p743
aS'SUE'
p744
aS'SYE'
p745
ag313
ag465
asS'BEL'
p746
(lp747
g721
aS'BEN'
p748
ag723
ag724
ag725
ag726
aS'DEL'
p749
aS'EEL'
p750
aS'GEL'
p751
ag702
ag244
aS'ZEL'
p752
asg470
(lp753
g460
ag502
ag497
ag498
aS'GUN'
p754
ag407
aS'GUR'
p755
aS'GUS'
p756
ag393
aS'GUY'
p757
aS'GUY'
p758
aS'GUZ'
p759
aS'HUD'
p760
aS'JUD'
p761
ag659
aS'PUD'
p762
ag69
ag170
ag517
asS'EVA'
p763
(lp764
S'EVE'
p765
aS'EVE'
p766
aS'IVA'
p767
ag651
aS'OVA'
p768
ag653
asS'BEA'
p769
(lp770
S'BED'
p771
aS'BEE'
p772
aS'BEE'
p773
aS'BEG'
p774
ag746
aS'BEL'
p775
ag721
ag748
ag723
ag724
ag725
ag726
aS'BOA'
p776
aS'BRA'
p777
aS'KEA'
p778
aS'LEA'
p779
aS'LEA'
p780
aS'NEA'
p781
aS'PEA'
p782
aS'REA'
p783
ag43
ag330
aS'WEA'
p784
aS'YEA'
p785
aS'ZEA'
p786
asS'DUB'
p787
(lp788
S'DUD'
p789
aS'DUE'
p790
aS'DUG'
p791
aS'DUM'
p792
aS'DUN'
p793
aS'DUO'
p794
aS'DUP'
p795
aS'DUX'
p796
ag447
aS'HUB'
p797
aS'NUB'
p798
aS'PUB'
p799
ag633
ag586
ag337
asg765
(lp800
S'EWE'
p801
aS'EWE'
p802
aS'EYE'
p803
asg497
(lp804
g754
ag407
ag755
ag756
ag393
ag757
ag758
ag759
ag437
aS'HUM'
p805
ag534
ag535
ag700
ag637
ag638
ag186
ag344
aS'VUM'
p806
asg772
(lp807
g774
ag746
ag775
ag721
ag748
ag723
ag724
ag725
ag726
aS'BYE'
p808
aS'CEE'
p809
aS'DEE'
p810
aS'FEE'
p811
aS'GEE'
p812
aS'GEE'
p813
aS'KEE'
p814
aS'LEE'
p815
aS'LEE'
p816
aS'NEE'
p817
aS'PEE'
p818
ag239
ag240
aS'SEE'
p819
ag310
aS'VEE'
p820
aS'WEE'
p821
aS'YEE'
p822
aS'ZEE'
p823
asg756
(lp824
g393
ag757
ag758
ag759
aS'MUS'
p825
ag259
ag640
aS'SUS'
p826
ag53
asg755
(lp827
g756
ag393
ag757
ag758
ag759
aS'JUR'
p828
ag706
aS'OUR'
p829
ag257
ag17
ag233
ag262
asg726
(lp830
S'BOY'
p831
aS'BUY'
p832
aS'DEY'
p833
ag692
aS'GEY'
p834
ag285
aS'KEY'
p835
aS'LEY'
p836
aS'SEY'
p837
aS'WEY'
p838
asg69
(lp839
g635
ag636
ag637
ag638
ag639
ag640
ag600
ag211
ag170
ag517
asg393
(lp840
g757
ag758
ag759
aS'HUT'
p841
aS'JUT'
p842
ag681
aS'NUT'
p843
aS'OUT'
p844
ag260
ag600
ag203
ag221
asg723
(lp845
g724
ag725
ag726
aS'BOR'
p846
aS'BUR'
p847
aS'EER'
p848
aS'GER'
p849
ag281
aS'KER'
p850
ag705
aS'MER'
p851
aS'OER'
p852
aS'PER'
p853
aS'PER'
p854
aS'SER'
p855
aS'WER'
p856
aS'YER'
p857
aS'ZER'
p858
asg724
(lp859
g725
ag726
aS'BIS'
p860
aS'BOS'
p861
aS'BUS'
p862
aS'GES'
p863
aS'LES'
p864
aS'MES'
p865
aS'OES'
p866
aS'PES'
p867
aS'WES'
p868
aS'YES'
p869
asg202
(lp870
g203
ag204
aS'UST'
p871
asg725
(lp872
g726
aS'BIT'
p873
aS'BOT'
p874
aS'BUT'
p875
ag689
aS'GET'
p876
ag282
aS'JET'
p877
aS'KET'
p878
ag678
ag570
aS'NET'
p879
aS'NET'
p880
aS'PET'
p881
ag246
aS'SET'
p882
aS'VET'
p883
ag219
aS'YET'
p884
asS'OXY'
p885
(lp886
sg760
(lp887
S'HUE'
p888
aS'HUG'
p889
aS'HUH'
p890
ag288
aS'HUK'
p891
ag805
aS'HUN'
p892
aS'HUP'
p893
ag841
ag761
ag659
ag762
ag69
ag170
ag517
asg888
(lp894
g889
ag890
ag288
ag891
ag805
ag892
ag893
ag841
aS'LUE'
p895
ag635
ag743
ag744
ag315
asg45
(lp896
g274
ag128
ag130
ag131
ag132
ag133
ag134
ag135
ag136
ag11
ag137
ag13
ag14
ag15
ag16
ag46
ag47
ag48
ag49
aS'VIA'
p897
asg647
(lp898
g649
ag568
ag650
ag559
ag561
ag562
ag563
ag564
ag851
ag370
aS'MOR'
p899
ag707
ag708
ag709
ag38
ag224
ag234
ag235
ag236
asg889
(lp900
g890
ag288
ag891
ag805
ag892
ag893
ag841
ag374
ag605
ag606
aS'MUG'
p901
ag716
ag636
ag321
ag436
asg797
(lp902
g760
ag888
ag889
ag890
ag288
ag891
ag805
ag892
ag893
ag841
ag798
ag799
ag633
ag586
ag337
asS'NTH'
p903
(lp904
sg805
(lp905
g892
ag893
ag841
ag534
ag535
ag700
ag637
ag638
ag186
ag344
ag806
asg892
(lp906
g893
ag841
ag410
aS'MUN'
p907
aS'NUN'
p908
ag719
ag639
ag184
ag147
aS'WUN'
p909
ag143
asg890
(lp910
g288
ag891
ag805
ag892
ag893
ag841
ag141
asg288
(lp911
g891
ag805
ag892
ag893
ag841
aS'KUI'
p912
aS'LUI'
p913
aS'SUI'
p914
aS'TUI'
p915
asg891
(lp916
g805
ag892
ag893
ag841
aS'SUK'
p917
asg841
(lp918
g842
ag681
ag843
ag844
ag260
ag600
ag203
ag221
asg893
(lp919
g841
aS'HYP'
p920
ag720
ag154
ag227
aS'WUP'
p921
asS'SHY'
p922
(lp923
S'SKY'
p924
aS'SLY'
p925
ag710
ag712
ag713
ag714
ag715
ag178
ag182
asS'PEW'
p926
(lp927
S'POW'
p928
aS'SEW'
p929
aS'TEW'
p930
aS'YEW'
p931
asg653
(lp932
sS'NYE'
p933
(lp934
S'RYE'
p935
ag745
ag316
aS'WYE'
p936
asS'GRR'
p937
(lp938
g755
asg592
(lp939
g521
ag523
ag524
ag525
ag526
ag527
ag528
ag529
ag530
ag531
ag532
ag533
aS'LEK'
p940
aS'NAK'
p941
aS'OAK'
p942
ag29
aS'YAK'
p943
aS'ZAK'
p944
asg196
(lp945
g197
ag198
ag199
ag200
aS'TOU'
p946
ag403
asg789
(lp947
g790
ag791
ag792
ag793
ag794
ag795
ag796
ag485
ag470
ag760
ag761
ag659
ag762
ag69
ag170
ag517
asS'COL'
p948
(lp949
S'CON'
p950
aS'COO'
p951
aS'COP'
p952
aS'COR'
p953
aS'COS'
p954
aS'COT'
p955
aS'COW'
p956
aS'COX'
p957
aS'COY'
p958
aS'COZ'
p959
aS'DOL'
p960
ag501
aS'KOL'
p961
aS'POL'
p962
ag191
ag192
ag340
ag405
asg732
(lp963
S'GEO'
p964
ag849
ag863
ag876
ag834
aS'GEZ'
p965
ag455
ag94
ag754
ag176
ag279
ag733
ag734
ag544
ag735
ag736
ag737
ag347
ag738
ag739
ag740
asS'BLO'
p966
(lp967
S'BOO'
p968
aS'FLO'
p969
asg198
(lp970
g199
ag200
ag930
aS'TOW'
p971
ag216
ag583
asg586
(lp972
g170
ag743
ag744
ag914
ag917
ag186
ag184
ag154
ag17
ag826
aS'SUU'
p973
aS'SUZ'
p974
ag337
asS'GRA'
p975
(lp976
g937
aS'IRA'
p977
aS'KRA'
p978
aS'KRA'
p979
aS'ORA'
p980
ag333
aS'URA'
p981
asg101
(lp982
S'NOR'
p983
aS'NOT'
p984
aS'NOU'
p985
aS'NOW'
p986
aS'NOY'
p987
ag908
ag102
ag64
ag103
ag104
ag105
ag106
ag107
asS'MEO'
p988
(lp989
g851
ag865
ag570
aS'MEV'
p990
ag578
ag612
aS'MOO'
p991
aS'NEO'
p992
aS'YEO'
p993
asS'IWA'
p994
(lp995
S'MWA'
p996
ag49
ag335
asg790
(lp997
g791
ag792
ag793
ag794
ag795
ag796
aS'DYE'
p998
ag460
ag888
ag895
ag635
ag743
ag744
ag315
asS'NOD'
p999
(lp1000
S'NOG'
p1001
ag101
ag983
ag984
ag985
ag986
ag987
aS'POD'
p1002
ag58
ag251
ag70
ag71
ag72
ag73
ag74
asg720
(lp1003
g257
ag259
ag260
ag154
ag227
ag921
asg1001
(lp1004
g101
ag983
ag984
ag985
ag986
ag987
ag61
ag159
ag320
ag435
aS'WOG'
p1005
asS'NOA'
p1006
(lp1007
S'NOB'
p1008
ag999
ag1001
ag101
ag983
ag984
ag985
ag986
ag987
aS'POA'
p1009
ag332
aS'ZOA'
p1010
aS'ZOA'
p1011
asg1008
(lp1012
g999
ag1001
ag101
ag983
ag984
ag985
ag986
ag987
ag798
aS'POB'
p1013
aS'ROB'
p1014
aS'ROB'
p1015
ag585
aS'WOB'
p1016
asS'GEM'
p1017
(lp1018
g732
ag964
ag849
ag863
ag876
ag834
ag965
ag454
ag497
ag498
ag437
ag278
aS'JEM'
p1019
ag699
aS'WEM'
p1020
asS'OKA'
p1021
(lp1022
S'OKI'
p1023
aS'ONA'
p1024
aS'ONA'
p1025
ag980
ag651
ag768
asS'INN'
p1026
(lp1027
S'INO'
p1028
ag96
asg106
(lp1029
S'WOO'
p1030
aS'WOP'
p1031
ag220
aS'WOW'
p1032
aS'WOY'
p1033
ag909
ag177
ag107
asg987
(lp1034
S'POY'
p1035
ag68
ag712
ag180
ag1033
aS'YOY'
p1036
asS'INK'
p1037
(lp1038
g1026
ag1028
aS'IRK'
p1039
asS'IND'
p1040
(lp1041
S'ING'
p1042
aS'ING'
p1043
ag1037
ag1026
ag1028
asg985
(lp1044
g986
ag987
aS'SOU'
p1045
ag946
aS'YOU'
p1046
asg259
(lp1047
g260
ag640
ag826
ag53
asg983
(lp1048
g984
ag985
ag986
ag987
ag231
ag232
aS'YOR'
p1049
asS'CYP'
p1050
(lp1051
g408
ag920
asg287
(lp1052
g288
aS'PSI'
p1053
aS'SSI'
p1054
asS'DON'
p1055
(lp1056
S'DOP'
p1057
aS'DOR'
p1058
aS'DOR'
p1059
aS'DOS'
p1060
aS'DOT'
p1061
aS'DOT'
p1062
aS'DOW'
p1063
ag793
ag90
ag93
ag94
ag95
ag96
ag97
ag98
ag99
ag100
ag101
ag102
ag64
ag103
ag104
ag105
ag106
ag107
asg261
(lp1064
S'PYX'
p1065
asg960
(lp1066
S'DOM'
p1067
ag1055
aS'DON'
p1068
ag1057
ag1058
ag1059
ag1060
ag1061
ag1062
ag1063
ag501
ag961
ag962
ag191
ag192
ag340
ag405
asg1067
(lp1069
g1055
ag1068
ag1057
ag1058
ag1059
ag1060
ag1061
ag1062
ag1063
ag792
aS'POM'
p1070
ag343
aS'YOM'
p1071
asS'CAN'
p1072
(lp1073
S'CAP'
p1074
aS'CAR'
p1075
aS'CAT'
p1076
aS'CAT'
p1077
aS'CAW'
p1078
aS'CAY'
p1079
ag950
aS'DAN'
p1080
aS'DAN'
p1081
aS'EAN'
p1082
aS'FAN'
p1083
aS'FAN'
p1084
aS'GAN'
p1085
aS'HAN'
p1086
aS'IAN'
p1087
aS'JAN'
p1088
aS'KAN'
p1089
ag523
ag545
ag546
ag547
ag548
ag549
ag550
ag551
ag34
ag35
ag303
ag348
ag349
ag350
ag351
ag352
asg461
(lp1090
g499
ag510
ag383
aS'HIS'
p1091
ag394
aS'HOE'
p1092
ag888
ag462
ag463
ag464
ag131
ag313
ag465
asS'EKE'
p1093
(lp1094
S'EME'
p1095
aS'ERE'
p1096
ag765
ag766
ag801
ag802
ag803
aS'IKE'
p1097
aS'UKE'
p1098
asg247
(lp1099
g248
ag249
asg1079
(lp1100
S'CLY'
p1101
ag958
aS'CRY'
p1102
aS'DAY'
p1103
aS'FAY'
p1104
aS'FAY'
p1105
aS'GAY'
p1106
aS'HAY'
p1107
aS'JAY'
p1108
aS'JAY'
p1109
aS'KAY'
p1110
aS'KAY'
p1111
ag532
ag563
ag564
aS'NAY'
p1112
aS'PAY'
p1113
aS'RAY'
p1114
aS'RAY'
p1115
ag42
ag200
ag218
asg670
(lp1116
g671
ag672
asS'DOE'
p1117
(lp1118
S'DOG'
p1119
ag960
ag1067
ag1055
ag1068
ag1057
ag1058
ag1059
ag1060
ag1061
ag1062
ag1063
ag790
ag998
ag487
ag1092
aS'JOE'
p1120
aS'JOE'
p1121
ag655
aS'POE'
p1122
ag60
ag742
ag314
aS'VOE'
p1123
aS'WOE'
p1124
aS'YOE'
p1125
asg1124
(lp1126
g1005
ag106
ag1030
ag1031
ag220
ag1032
ag1033
ag936
ag1125
asg243
(lp1127
g244
ag245
ag246
ag247
ag248
ag249
asg5
(lp1128
g670
ag6
ag7
ag8
ag9
asg244
(lp1129
g245
ag246
ag247
ag248
ag249
ag752
asS'SHI'
p1130
(lp1131
g615
ag616
ag676
ag922
aS'SKI'
p1132
aS'SRI'
p1133
aS'SRI'
p1134
ag1054
ag914
asg1058
(lp1135
g1060
ag1061
ag1062
ag1063
ag366
ag367
aS'GOR'
p1136
aS'GOR'
p1137
aS'KOR'
p1138
ag899
ag983
ag231
ag232
ag1049
asg1060
(lp1139
g1061
ag1062
ag1063
aS'GOS'
p1140
aS'JOS'
p1141
aS'KOS'
p1142
asg111
(lp1143
g77
ag5
ag670
ag113
ag114
ag115
ag116
ag117
ag118
ag119
ag120
ag121
ag122
ag1021
asg783
(lp1144
S'REB'
p1145
ag237
aS'RED'
p1146
ag239
ag240
ag241
ag242
ag243
ag244
ag245
ag246
ag247
ag248
ag249
aS'RIA'
p1147
aS'RUA'
p1148
ag43
ag330
ag784
ag785
ag786
asg241
(lp1149
g242
ag243
ag244
ag245
ag246
ag247
ag248
ag249
asg242
(lp1150
g243
ag244
ag245
ag246
ag247
ag248
ag249
ag378
ag61
ag636
aS'SEG'
p1151
ag319
asg47
(lp1152
g48
ag49
asg239
(lp1153
g241
ag242
ag243
ag244
ag245
ag246
ag247
ag248
ag249
aS'RHE'
p1154
ag464
ag60
ag635
ag935
ag819
ag310
ag820
ag821
ag822
ag823
asg160
(lp1155
g193
ag187
ag144
ag146
ag56
ag320
ag321
ag322
ag161
ag162
asS'ORF'
p1156
(lp1157
S'ORT'
p1158
aS'ORY'
p1159
aS'OUF'
p1160
ag474
asg791
(lp1161
g792
ag793
ag794
ag795
ag796
ag889
ag374
ag605
ag606
ag901
ag716
ag636
ag321
ag436
asg558
(lp1162
g617
ag182
asg490
(lp1163
g389
ag400
ag424
asg617
(lp1164
g182
ag1030
ag416
asg1160
(lp1165
g829
ag844
asS'HAO'
p1166
(lp1167
S'HAP'
p1168
aS'HAT'
p1169
aS'HAU'
p1170
aS'HAW'
p1171
ag1107
aS'IAO'
p1172
ag524
ag645
ag36
ag304
ag305
ag358
asg231
(lp1173
g201
ag946
ag971
ag212
ag180
ag233
ag1049
asg432
(lp1174
g490
ag491
ag389
ag400
ag424
ag637
ag638
ag134
ag187
ag188
ag189
asg1075
(lp1175
g1076
ag1077
ag1078
ag1079
ag953
aS'CUR'
p1176
aS'DAR'
p1177
aS'EAR'
p1178
aS'FAR'
p1179
aS'GAR'
p1180
aS'JAR'
p1181
ag526
ag527
ag647
ag648
ag707
ag708
ag709
ag38
ag224
ag234
ag235
ag236
asg829
(lp1182
g844
ag257
ag17
ag233
ag262
asg1016
(lp1183
g74
ag1124
ag1005
ag106
ag1030
ag1031
ag220
ag1032
ag1033
asg182
(lp1184
g1033
ag418
asg460
(lp1185
g502
ag497
ag498
ag754
ag407
ag755
ag756
ag393
ag757
ag758
ag759
ag888
ag895
ag635
ag743
ag744
ag315
asg844
(lp1186
g260
ag600
ag203
ag221
asS'KOP'
p1187
(lp1188
g1138
ag1142
aS'KOU'
p1189
aS'LOP'
p1190
aS'MOP'
p1191
aS'POP'
p1192
aS'POP'
p1193
ag153
ag226
ag1031
asg174
(lp1194
g150
ag151
ag156
ag51
asg883
(lp1195
S'VEX'
p1196
ag219
ag884
asg1074
(lp1197
g1075
ag1076
ag1077
ag1078
ag1079
aS'CEP'
p1198
ag952
aS'CUP'
p1199
ag1050
aS'DAP'
p1200
aS'GAP'
p1201
ag1168
aS'JAP'
p1202
aS'JAP'
p1203
ag525
ag646
aS'NAP'
p1204
aS'PAP'
p1205
aS'RAP'
p1206
ag37
ag222
ag228
ag229
asS'JEW'
p1207
(lp1208
S'JOW'
p1209
ag695
ag696
ag578
aS'NEW'
p1210
ag926
ag929
ag930
ag931
asg877
(lp1211
g1207
aS'JOT'
p1212
ag842
ag878
ag678
ag570
ag879
ag880
ag881
ag246
ag882
ag883
ag219
ag884
asS'AUH'
p1213
(lp1214
S'AUK'
p1215
aS'AUK'
p1216
aS'AUM'
p1217
aS'AUS'
p1218
ag890
ag141
asg1215
(lp1219
g1217
ag1218
ag891
ag917
asg150
(lp1220
g156
ag51
ag107
ag143
asg1217
(lp1221
g1218
aS'BUM'
p1222
aS'CUM'
p1223
ag792
aS'FUM'
p1224
ag497
ag498
ag805
ag534
ag535
ag700
ag637
ag638
ag186
ag344
ag806
asg1042
(lp1225
g1037
ag1026
ag1028
asg1196
(lp1226
S'YEX'
p1227
asg1218
(lp1228
g862
ag756
ag825
ag259
ag640
ag826
ag53
asg820
(lp1229
g291
ag883
ag1196
ag465
ag1123
ag821
ag822
ag823
asS'JEF'
p1230
(lp1231
g1019
ag877
ag1207
aS'KEF'
p1232
aS'NEF'
p1233
ag241
asg156
(lp1234
g51
ag157
asS'JED'
p1235
(lp1236
g1230
ag1019
ag877
ag1207
ag761
aS'KED'
p1237
ag594
aS'NED'
p1238
aS'PED'
p1239
ag237
ag1146
ag252
ag253
ag254
ag255
ag256
asg48
(lp1240
g713
ag714
ag49
asg1057
(lp1241
g1058
ag1059
ag1060
ag1061
ag1062
ag1063
ag795
ag381
aS'HOP'
p1242
ag1187
ag1190
ag1191
ag1192
ag1193
ag153
ag226
ag1031
asg1076
(lp1243
g1078
ag1079
aS'CIT'
p1244
ag955
aS'CUT'
p1245
aS'EAT'
p1246
aS'FAT'
p1247
aS'GAT'
p1248
ag1169
aS'JAT'
p1249
aS'KAT'
p1250
ag529
ag568
ag650
ag572
ag573
ag574
ag575
ag576
ag39
ag194
ag225
ag205
ag206
ag207
ag208
ag209
asg250
(lp1251
g464
ag378
aS'RIK'
p1252
ag432
ag490
ag491
ag389
ag400
ag424
ag58
ag251
ag69
ag130
ag172
ag173
ag174
asg1142
(lp1253
g1189
asg291
(lp1254
g883
ag1196
ag292
asS'ALN'
p1255
(lp1256
g6
aS'ALP'
p1257
ag662
ag164
aS'ANN'
p1258
aS'ANN'
p1259
aS'ARN'
p1260
aS'AWN'
p1261
asg6
(lp1262
g1257
ag662
ag164
ag7
ag8
ag9
ag966
ag969
asS'ALL'
p1263
(lp1264
g1255
ag6
ag1257
ag662
ag164
aS'AWL'
p1265
aS'ELL'
p1266
aS'ILL'
p1267
aS'ULL'
p1268
asg464
(lp1269
g378
ag1252
ag432
ag490
ag491
ag389
ag400
ag424
ag60
ag635
ag935
ag131
ag313
ag465
asS'ALK'
p1270
(lp1271
g1263
ag1255
ag6
ag1257
ag662
ag164
aS'ARK'
p1272
aS'ASK'
p1273
ag1215
ag1216
aS'ELK'
p1274
aS'ILK'
p1275
asg1159
(lp1276
g885
aS'PRY'
p1277
ag181
ag418
asS'ALF'
p1278
(lp1279
g1270
ag1263
ag1255
ag6
ag1257
ag662
ag164
aS'ELF'
p1280
asg1158
(lp1281
g1159
ag844
asg78
(lp1282
g1278
aS'ALF'
p1283
ag1270
ag1263
ag1255
ag6
ag1257
ag662
ag164
ag79
ag80
ag81
ag82
ag83
ag84
ag85
ag86
ag87
ag88
aS'OLE'
p1284
aS'ULE'
p1285
asS'ALB'
p1286
(lp1287
g78
ag1278
ag1283
ag1270
ag1263
ag1255
ag6
ag1257
ag662
ag164
aS'ELB'
p1288
asS'EDO'
p1289
(lp1290
g10
aS'IDO'
p1291
aS'UDO'
p1292
asg799
(lp1293
g762
ag716
ag718
ag719
ag720
ag257
ag259
ag260
ag633
ag586
ag337
asg113
(lp1294
g1286
aS'ALB'
p1295
ag78
ag1278
ag1283
ag1270
ag1263
ag1255
ag6
ag1257
ag662
ag164
ag114
ag115
ag116
ag117
ag118
ag119
ag120
ag121
ag122
aS'ILA'
p1296
ag46
aS'ULA'
p1297
asS'QUA'
p1298
(lp1299
S'QUO'
p1300
ag1148
ag334
asg405
(lp1301
S'VOW'
p1302
asS'ERG'
p1303
(lp1304
S'ERR'
p1305
aS'ERS'
p1306
asg299
(lp1307
g300
ag301
ag302
ag303
ag304
ag305
ag222
ag224
ag194
ag225
ag196
ag197
ag198
ag199
ag200
asg164
(lp1308
g165
ag166
ag167
ag168
ag1101
aS'FLY'
p1309
aS'PLY'
p1310
ag925
asg260
(lp1311
g600
ag203
ag221
asg105
(lp1312
g356
ag226
ag231
ag232
ag201
ag946
ag971
ag212
ag180
ag147
ag106
ag107
asg662
(lp1313
g164
ag663
ag664
ag665
ag666
ag667
ag668
aS'ELT'
p1314
asS'ORE'
p1315
(lp1316
g1156
ag1158
ag1159
ag513
aS'OWE'
p1317
aS'URE'
p1318
asg1138
(lp1319
g1142
ag1189
ag899
ag983
ag231
ag232
ag1049
asS'ORC'
p1320
(lp1321
g1315
ag1156
ag1158
ag1159
ag511
asg1257
(lp1322
g662
ag164
aS'ASP'
p1323
asg980
(lp1324
S'ORB'
p1325
ag1320
ag1315
ag1156
ag1158
ag1159
ag651
ag768
ag333
ag981
asS'KOI'
p1326
(lp1327
g961
ag98
ag1187
ag1138
ag1142
ag1189
ag912
aS'MOI'
p1328
aS'POI'
p1329
ag62
aS'TOI'
p1330
aS'YOI'
p1331
asS'BAW'
p1332
(lp1333
S'BAY'
p1334
aS'BOW'
p1335
ag1078
aS'DAW'
p1336
aS'GAW'
p1337
ag1171
aS'JAW'
p1338
aS'KAW'
p1339
ag530
ag561
ag580
ag581
ag582
ag40
ag198
ag216
ag583
asS'BAT'
p1340
(lp1341
g1332
ag1334
ag725
ag873
ag874
ag875
ag1076
ag1077
ag1246
ag1247
ag1248
ag1169
ag1249
ag1250
ag529
ag568
ag650
ag572
ag573
ag574
ag575
ag576
ag39
ag194
ag225
ag205
ag206
ag207
ag208
ag209
asg180
(lp1342
g181
ag1033
ag1036
asS'BAR'
p1343
(lp1344
S'BAS'
p1345
ag1340
aS'BAT'
p1346
ag1332
ag1334
ag723
ag846
ag847
ag1075
ag1177
ag1178
ag1179
ag1180
ag1181
ag526
ag527
ag647
ag648
ag707
ag708
ag709
ag38
ag224
ag234
ag235
ag236
asg1345
(lp1347
g1340
ag1346
ag1332
ag1334
ag724
ag860
ag861
ag862
aS'DAS'
p1348
aS'GAS'
p1349
ag528
ag649
aS'RAS'
p1350
ag402
ag494
ag495
asS'BAP'
p1351
(lp1352
g1343
ag1345
ag1340
ag1346
ag1332
ag1334
aS'BOP'
p1353
ag1074
ag1200
ag1201
ag1168
ag1202
ag1203
ag525
ag646
ag1204
ag1205
ag1206
ag37
ag222
ag228
ag229
asS'IBO'
p1354
(lp1355
g1291
aS'IJO'
p1356
ag1028
aS'ISO'
p1357
aS'ITO'
p1358
aS'IYO'
p1359
asS'KOA'
p1360
(lp1361
S'KOB'
p1362
ag1326
ag961
ag98
ag1187
ag1138
ag1142
ag1189
ag978
ag979
aS'KUA'
p1363
aS'LOA'
p1364
aS'LOA'
p1365
ag1006
ag1009
ag332
ag1010
ag1011
asS'IBA'
p1366
(lp1367
g1354
aS'IDA'
p1368
ag1296
aS'IMA'
p1369
ag977
aS'ITA'
p1370
ag767
ag994
asg226
(lp1371
g231
ag232
ag201
ag946
ag971
ag212
ag180
ag227
ag1031
asS'BAA'
p1372
(lp1373
S'BAB'
p1374
aS'BAC'
p1375
aS'BAD'
p1376
aS'BAE'
p1377
aS'BAG'
p1378
aS'BAH'
p1379
aS'BAL'
p1380
aS'BAL'
p1381
aS'BAM'
p1382
aS'BAN'
p1383
aS'BAN'
p1384
ag1351
ag1343
ag1345
ag1340
ag1346
ag1332
ag1334
ag769
ag776
ag777
aS'NAA'
p1385
ag19
ag50
asg1078
(lp1386
g1079
ag956
ag1336
ag1337
ag1171
ag1338
ag1339
ag530
ag561
ag580
ag581
ag582
ag40
ag198
ag216
ag583
asg971
(lp1387
g212
ag180
ag1302
ag1032
aS'YOW'
p1388
asg201
(lp1389
g946
ag971
ag212
ag180
ag202
ag203
ag204
ag220
ag601
asg1334
(lp1390
g726
ag831
ag832
ag1079
ag1103
ag1104
ag1105
ag1106
ag1107
ag1108
ag1109
ag1110
ag1111
ag532
ag563
ag564
ag1112
ag1113
ag1114
ag1115
ag42
ag200
ag218
asS'ERD'
p1391
(lp1392
g1096
ag1303
ag1305
ag1306
aS'URD'
p1393
asg1096
(lp1394
g1303
ag1305
ag1306
ag765
ag766
ag801
ag802
ag803
aS'IRE'
p1395
ag1315
ag1318
asg1376
(lp1396
g1377
ag1378
ag1379
ag1380
ag1381
ag1382
ag1383
ag1384
ag1351
ag1343
ag1345
ag1340
ag1346
ag1332
ag1334
ag771
aS'BID'
p1397
aS'BOD'
p1398
aS'BUD'
p1399
aS'BUD'
p1400
aS'CAD'
p1401
aS'DAD'
p1402
aS'FAD'
p1403
aS'GAD'
p1404
aS'GAD'
p1405
aS'HAD'
p1406
ag587
ag596
ag597
ag598
ag24
ag293
ag329
ag306
ag307
ag308
asg1377
(lp1407
g1378
ag1379
ag1380
ag1381
ag1382
ag1383
ag1384
ag1351
ag1343
ag1345
ag1340
ag1346
ag1332
ag1334
ag772
ag773
ag808
aS'DAE'
p1408
aS'FAE'
p1409
ag642
ag656
ag295
ag317
asg1374
(lp1410
g1375
ag1376
ag1377
ag1378
ag1379
ag1380
ag1381
ag1382
ag1383
ag1384
ag1351
ag1343
ag1345
ag1340
ag1346
ag1332
ag1334
aS'BIB'
p1411
aS'BOB'
p1412
aS'BOB'
p1413
aS'BUB'
p1414
aS'CAB'
p1415
aS'DAB'
p1416
aS'GAB'
p1417
aS'JAB'
p1418
ag618
ag622
ag623
ag624
ag625
ag21
ag327
ag328
ag338
asS'ERA'
p1419
(lp1420
g1391
ag1096
ag1303
ag1305
ag1306
aS'ETA'
p1421
ag763
aS'FRA'
p1422
ag975
ag977
ag978
ag979
ag980
ag333
ag981
asS'CAM'
p1423
(lp1424
g1072
ag1074
ag1075
ag1076
ag1077
ag1078
ag1079
ag1223
aS'CWM'
p1425
aS'DAM'
p1426
aS'FAM'
p1427
aS'GAM'
p1428
aS'HAM'
p1429
aS'JAM'
p1430
aS'JAM'
p1431
ag521
ag536
ag537
ag538
ag539
ag540
ag541
ag542
ag32
ag33
ag302
ag345
asS'CAL'
p1432
(lp1433
g1423
ag1072
ag1074
ag1075
ag1076
ag1077
ag1078
ag1079
ag948
aS'DAL'
p1434
aS'GAL'
p1435
aS'HAL'
p1436
ag644
ag703
ag30
ag31
ag300
ag301
ag341
asg1383
(lp1437
g1351
ag1343
ag1345
ag1340
ag1346
ag1332
ag1334
ag721
ag748
ag727
ag728
ag729
ag730
ag1072
ag1080
ag1081
ag1082
ag1083
ag1084
ag1085
ag1086
ag1087
ag1088
ag1089
ag523
ag545
ag546
ag547
ag548
ag549
ag550
ag551
ag34
ag35
ag303
ag348
ag349
ag350
ag351
ag352
asg1415
(lp1438
g1401
aS'CAG'
p1439
ag1432
ag1423
ag1072
ag1074
ag1075
ag1076
ag1077
ag1078
ag1079
aS'COB'
p1440
aS'CUB'
p1441
ag1416
ag1417
ag1418
ag618
ag622
ag623
ag624
ag625
ag21
ag327
ag328
ag338
asg1098
(lp1442
g1285
aS'UME'
p1443
ag1318
aS'USE'
p1444
aS'UTE'
p1445
asg1382
(lp1446
g1383
ag1384
ag1351
ag1343
ag1345
ag1340
ag1346
ag1332
ag1334
aS'BIM'
p1447
aS'BOM'
p1448
ag1222
ag1423
ag1426
ag1427
ag1428
ag1429
ag1430
ag1431
ag521
ag536
ag537
ag538
ag539
ag540
ag541
ag542
ag32
ag33
ag302
ag345
asg1439
(lp1449
g1432
ag1423
ag1072
ag1074
ag1075
ag1076
ag1077
ag1078
ag1079
aS'CIG'
p1450
aS'COG'
p1451
aS'DAG'
p1452
aS'FAG'
p1453
aS'GAG'
p1454
aS'HAG'
p1455
aS'JAG'
p1456
ag589
ag607
ag608
ag609
ag25
ag296
ag323
ag324
ag325
asg1380
(lp1457
g1382
ag1383
ag1384
ag1351
ag1343
ag1345
ag1340
ag1346
ag1332
ag1334
ag746
ag775
ag1432
ag1434
ag1435
ag1436
ag644
ag703
ag30
ag31
ag300
ag301
ag341
asg1379
(lp1458
g1380
ag1381
ag1382
ag1383
ag1384
ag1351
ag1343
ag1345
ag1340
ag1346
ag1332
ag1334
aS'DAH'
p1459
aS'HAH'
p1460
ag643
ag683
ag684
ag26
ag516
ag685
asg1401
(lp1461
g1439
ag1432
ag1423
ag1072
ag1074
ag1075
ag1076
ag1077
ag1078
ag1079
aS'CID'
p1462
aS'COD'
p1463
aS'CUD'
p1464
ag1402
ag1403
ag1404
ag1405
ag1406
ag587
ag596
ag597
ag598
ag24
ag293
ag329
ag306
ag307
ag308
asg383
(lp1465
g1091
ag394
ag1242
ag893
ag920
ag384
ag385
ag386
ag387
ag388
ag389
ag136
ag146
ag155
ag156
ag157
asg1091
(lp1466
g394
aS'LIS'
p1467
ag13
ag14
ag493
aS'WIS'
p1468
ag51
asg394
(lp1469
S'HOT'
p1470
ag841
ag395
ag396
ag397
ag398
ag399
ag400
ag15
ag56
ag57
asg364
(lp1471
g365
aS'FOT'
p1472
aS'FUT'
p1473
ag390
ag394
ag395
ag396
ag397
ag398
ag399
ag400
ag15
ag56
ag57
asg1189
(lp1474
S'KRU'
p1475
ag360
aS'LOU'
p1476
ag565
ag985
ag1045
ag946
ag1046
asS'LOF'
p1477
(lp1478
g604
aS'LOO'
p1479
ag1190
ag679
ag680
ag1476
ag697
aS'LOX'
p1480
aS'LOY'
p1481
asg1024
(lp1482
S'ONE'
p1483
aS'ONS'
p1484
ag980
ag651
ag768
aS'UNA'
p1485
asg297
(lp1486
g299
ag300
ag301
ag302
ag303
ag304
ag305
ag222
ag224
ag194
ag225
ag196
ag197
ag198
ag199
ag200
aS'TJI'
p1487
ag1330
aS'TRI'
p1488
ag915
aS'TWI'
p1489
ag434
asg320
(lp1490
g1330
ag340
ag343
ag105
ag356
ag226
ag231
ag232
ag201
ag946
ag971
ag212
ag180
ag321
ag322
ag435
ag1005
asS'HIA'
p1491
(lp1492
S'HIC'
p1493
ag461
ag499
ag510
ag383
ag1091
ag394
aS'HWA'
p1494
aS'PIA'
p1495
aS'PIA'
p1496
ag1147
ag45
ag897
asg1302
(lp1497
g1032
ag1388
asg1063
(lp1498
S'FOW'
p1499
aS'HOW'
p1500
ag1209
ag697
ag579
ag986
ag928
ag66
aS'SOW'
p1501
ag971
ag1302
ag1032
ag1388
asg71
(lp1502
g314
ag320
ag1330
ag340
ag343
ag105
ag356
ag226
ag231
ag232
ag201
ag946
ag971
ag212
ag180
ag73
ag74
asg998
(lp1503
g803
aS'LYE'
p1504
ag933
ag935
ag745
ag316
ag936
asg690
(lp1505
g691
ag692
ag693
aS'FLU'
p1506
aS'FOU'
p1507
aS'LEU'
p1508
asg314
(lp1509
g320
ag1330
ag340
ag343
ag105
ag356
ag226
ag231
ag232
ag201
ag946
ag971
ag212
ag180
ag315
ag316
ag1123
ag1124
ag1125
asg499
(lp1510
g510
ag383
ag1091
ag394
ag805
ag267
ag426
ag427
ag428
ag429
ag430
ag431
ag432
ag134
ag187
ag188
ag189
asg510
(lp1511
g383
ag1091
ag394
ag95
ag892
ag268
ag411
ag412
ag413
ag414
ag415
ag135
ag144
ag148
ag149
ag150
ag151
asS'ABA'
p1512
(lp1513
S'ABB'
p1514
aS'ABE'
p1515
aS'ABO'
p1516
aS'ABU'
p1517
aS'ABU'
p1518
aS'ABY'
p1519
aS'ADA'
p1520
ag108
ag110
ag111
ag112
ag113
ag114
ag115
ag116
ag117
ag118
ag119
ag120
ag121
ag122
ag1366
asg1514
(lp1521
g1515
ag1516
ag1517
ag1518
ag1519
ag1286
ag1295
aS'EBB'
p1522
asg1515
(lp1523
g1516
ag1517
ag1518
ag1519
aS'ACE'
p1524
aS'ADE'
p1525
aS'ADE'
p1526
ag75
ag77
ag78
ag79
ag80
ag81
ag82
ag83
ag84
ag85
ag86
ag87
ag88
aS'OBE'
p1527
asg315
(lp1528
g321
ag915
ag344
ag147
ag227
ag233
ag203
aS'TUX'
p1529
ag316
asg604
(lp1530
g1479
ag1190
ag679
ag680
ag1476
ag697
ag1480
ag1481
ag605
ag606
aS'MOG'
p1531
ag1001
ag61
ag159
ag320
ag435
ag1005
asg719
(lp1532
g720
ag257
ag259
ag260
ag639
ag184
ag147
ag909
ag143
asg1516
(lp1533
g1517
ag1518
ag1519
aS'ADO'
p1534
ag1
ag4
ag5
ag6
ag7
ag8
ag9
ag1354
asS'PIK'
p1535
(lp1536
g431
ag415
ag388
ag371
ag399
ag423
ag1252
asg1061
(lp1537
g1063
ag1472
ag392
ag1470
ag1212
ag679
ag680
ag571
ag984
aS'POT'
p1538
ag65
ag55
ag201
ag220
ag601
asg1104
(lp1539
g692
ag1309
aS'FOY'
p1540
aS'FRY'
p1541
ag1106
ag1107
ag1108
ag1109
ag1110
ag1111
ag532
ag563
ag564
ag1112
ag1113
ag1114
ag1115
ag42
ag200
ag218
asS'OAF'
p1542
(lp1543
g942
ag538
ag708
ag573
aS'OFF'
p1544
ag1156
ag1160
ag515
asg1517
(lp1545
g1519
ag554
ag670
ag671
ag672
asS'CHI'
p1546
(lp1547
g611
aS'IHI'
p1548
aS'PHI'
p1549
ag1130
asg1519
(lp1550
S'ADY'
p1551
ag3
ag164
ag165
ag166
ag167
ag168
asg715
(lp1552
sS'GAZ'
p1553
(lp1554
g965
ag759
ag533
asg354
(lp1555
g178
ag356
ag357
ag617
asg159
(lp1556
S'SOH'
p1557
aS'SOK'
p1558
ag191
ag192
ag103
ag104
ag153
ag55
ag1045
aS'SOV'
p1559
ag1501
ag712
ag320
ag435
ag1005
asg146
(lp1560
g56
ag226
ag227
ag155
ag156
ag157
asg1107
(lp1561
g285
aS'HOY'
p1562
ag1108
ag1109
ag1110
ag1111
ag532
ag563
ag564
ag1112
ag1113
ag1114
ag1115
ag42
ag200
ag218
asS'IVY'
p1563
(lp1564
sg1179
(lp1565
g1247
ag1104
ag1105
ag362
ag366
ag367
ag368
ag369
ag1180
ag1181
ag526
ag527
ag647
ag648
ag707
ag708
ag709
ag38
ag224
ag234
ag235
ag236
asS'UDS'
p1566
(lp1567
g479
asg1557
(lp1568
g1558
ag191
ag192
ag103
ag104
ag153
ag55
ag1045
ag1559
ag1501
ag712
asg901
(lp1569
g700
ag907
ag825
aS'MUX'
p1570
ag716
ag636
ag321
ag436
asS'UDI'
p1571
(lp1572
g1292
ag1566
aS'UJI'
p1573
ag476
asg1425
(lp1574
sg1292
(lp1575
g1566
aS'UPO'
p1576
ag478
asg443
(lp1577
g444
ag445
ag379
ag362
ag364
ag365
aS'FOG'
p1578
ag452
ag266
ag375
ag376
ag377
ag378
ag132
ag160
ag161
ag162
asg471
(lp1579
g462
ag457
ag428
ag412
ag413
ag385
ag1467
ag397
aS'LIV'
p1580
aS'LIZ'
p1581
ag595
ag472
ag473
ag250
ag130
ag172
ag173
ag174
asg462
(lp1582
g457
ag428
ag412
ag413
ag385
ag1467
ag397
ag1580
ag1581
ag895
ag1504
ag463
ag464
ag131
ag313
ag465
asg457
(lp1583
g428
ag412
ag413
ag385
ag1467
ag397
ag1580
ag1581
ag1477
asg429
(lp1584
g414
ag370
ag421
ag700
ag430
ag431
ag432
ag134
ag187
ag188
ag189
asg504
(lp1585
g429
ag414
ag370
ag421
ag506
ag507
ag133
ag193
asg414
(lp1586
g370
ag421
ag99
ag100
ag907
ag415
ag135
ag144
ag148
ag149
ag150
ag151
asg428
(lp1587
g412
ag413
ag385
ag1467
ag397
ag1580
ag1581
ag534
ag535
ag429
ag430
ag431
ag432
ag134
ag187
ag188
ag189
asg412
(lp1588
g385
ag1467
ag397
ag1580
ag1581
ag414
ag415
ag135
ag144
ag148
ag149
ag150
ag151
asg271
(lp1589
g472
ag375
ag504
ag505
ag429
ag414
ag370
ag421
aS'MOB'
p1590
ag272
ag273
ag274
ag275
asg472
(lp1591
g375
ag504
ag505
ag429
ag414
ag370
ag421
ag658
ag659
ag473
ag250
ag130
ag172
ag173
ag174
asg375
(lp1592
g504
ag505
ag429
ag414
ag370
ag421
ag1531
ag901
ag376
ag377
ag378
ag132
ag160
ag161
ag162
asg191
(lp1593
g103
ag104
ag153
ag55
ag1045
ag1559
ag1501
ag712
ag340
ag405
asg397
(lp1594
g1580
ag1581
ag679
ag680
ag681
ag398
ag399
ag400
ag15
ag56
ag57
asg421
(lp1595
g1570
ag422
ag423
ag424
ag16
asg1580
(lp1596
g1581
asg10
(lp1597
sg455
(lp1598
g456
ag382
ag390
ag94
ag754
ag176
ag510
ag268
ag411
ag412
ag413
ag414
ag415
ag135
ag144
ag148
ag149
ag150
ag151
asg370
(lp1599
g421
ag899
ag371
ag11
ag137
ag18
asS'EGG'
p1600
(lp1601
g10
ag1303
asg311
(lp1602
g354
ag355
ag178
ag313
ag314
ag315
ag316
asg1581
(lp1603
S'WIZ'
p1604
asg40
(lp1605
g41
ag42
ag929
ag1501
ag198
ag216
ag583
asg29
(lp1606
g30
ag31
ag32
ag33
ag34
ag35
ag36
ag37
ag38
ag39
ag40
ag41
ag42
ag1558
ag917
ag943
ag944
asg609
(lp1607
g684
aS'RAJ'
p1608
aS'RAJ'
p1609
ag541
ag542
ag550
ag551
ag1206
ag1350
ag576
ag582
aS'RAX'
p1610
ag1114
ag1115
ag242
ag378
ag61
ag636
ag25
ag296
ag323
ag324
ag325
asg598
(lp1611
g609
ag684
ag1608
ag1609
ag541
ag542
ag550
ag551
ag1206
ag1350
ag576
ag582
ag1610
ag1114
ag1115
ag237
ag1146
ag250
ag58
ag251
ag69
ag24
ag293
ag329
ag306
ag307
ag308
asg808
(lp1612
g998
ag803
ag1504
ag933
ag935
ag745
ag316
ag936
asg624
(lp1613
g598
ag609
ag684
ag1608
ag1609
ag541
ag542
ag550
ag551
ag1206
ag1350
ag576
ag582
ag1610
ag1114
ag1115
ag1145
ag273
ag1014
ag1015
ag633
ag21
ag327
ag328
ag338
asg34
(lp1614
g36
ag37
ag38
ag39
ag40
ag41
ag42
ag737
ag135
ag103
ag104
ag184
ag303
ag348
ag349
ag350
ag351
ag352
asg32
(lp1615
g34
ag35
ag36
ag37
ag38
ag39
ag40
ag41
ag42
ag134
ag186
ag302
ag345
asg30
(lp1616
g32
ag33
ag34
ag35
ag36
ag37
ag38
ag39
ag40
ag41
ag42
ag133
ag191
ag192
ag300
ag301
ag341
asg22
(lp1617
g24
ag25
ag26
ag27
ag28
ag29
ag30
ag31
ag32
ag33
ag34
ag35
ag36
ag37
ag38
ag39
ag40
ag41
ag42
aS'SEC'
p1618
ag128
ag138
ag631
ag632
asg21
(lp1619
g22
ag23
ag24
ag25
ag26
ag27
ag28
ag29
ag30
ag31
ag32
ag33
ag34
ag35
ag36
ag37
ag38
ag39
ag40
ag41
ag42
ag274
ag585
ag586
ag327
ag328
ag338
asS'PRO'
p1620
(lp1621
g1277
ag478
ag416
asg541
(lp1622
g550
ag551
ag1206
ag1350
ag576
ag582
ag1610
ag1114
ag1115
ag432
ag637
ag638
ag32
ag33
ag302
ag345
asg25
(lp1623
g26
ag27
ag28
ag29
ag30
ag31
ag32
ag33
ag34
ag35
ag36
ag37
ag38
ag39
ag40
ag41
ag42
ag1151
ag132
ag159
ag296
ag323
ag324
ag325
asg684
(lp1624
g1608
ag1609
ag541
ag542
ag550
ag551
ag1206
ag1350
ag576
ag582
ag1610
ag1114
ag1115
ag243
ag26
ag516
ag685
asg24
(lp1625
g25
ag26
ag27
ag28
ag29
ag30
ag31
ag32
ag33
ag34
ag35
ag36
ag37
ag38
ag39
ag40
ag41
ag42
ag130
ag70
ag170
ag171
ag293
ag329
ag306
ag307
ag308
asg582
(lp1626
g1610
ag1114
ag1115
ag66
ag40
ag198
ag216
ag583
asg576
(lp1627
g582
ag1610
ag1114
ag1115
ag246
ag400
ag65
ag600
ag39
ag194
ag225
ag205
ag206
ag207
ag208
ag209
asg1493
(lp1628
g461
ag499
ag510
ag383
ag1091
ag394
aS'PIC'
p1629
aS'RIC'
p1630
ag128
ag139
ag140
asg1350
(lp1631
g576
ag582
ag1610
ag1114
ag1115
ag640
ag402
ag494
ag495
asg1206
(lp1632
g1350
ag576
ag582
ag1610
ag1114
ag1115
ag245
ag389
ag37
ag222
ag228
ag229
asg373
(lp1633
g97
ag1141
ag1212
ag1209
aS'JOY'
p1634
ag374
ag604
ag1531
ag1001
ag61
ag159
ag320
ag435
ag1005
asg38
(lp1635
g39
ag40
ag41
ag42
ag855
ag11
ag137
ag17
ag224
ag234
ag235
ag236
asg37
(lp1636
g38
ag39
ag40
ag41
ag42
ag136
ag153
ag154
ag222
ag228
ag229
asg1277
(lp1637
g181
ag418
asg1238
(lp1638
g817
ag1233
ag290
ag992
aS'NEP'
p1639
aS'NEP'
p1640
ag879
ag880
ag1210
ag473
ag999
ag1239
ag237
ag1146
ag252
ag253
ag254
ag255
ag256
asg97
(lp1641
g1141
ag1212
ag1209
ag1634
ag410
ag98
ag99
ag100
ag101
ag102
ag64
ag103
ag104
ag105
ag106
ag107
asg39
(lp1642
g40
ag41
ag42
ag882
ag15
ag55
ag194
ag225
ag205
ag206
ag207
ag208
ag209
asg1393
(lp1643
g1318
ag474
ag476
ag477
ag478
ag479
ag480
asg555
(lp1644
S'CHE'
p1645
ag1546
ag611
ag556
ag557
ag44
ag331
ag558
asS'OBI'
p1646
(lp1647
S'OII'
p1648
ag1023
aS'UBI'
p1649
asg817
(lp1650
g1233
ag290
ag992
ag1639
ag1640
ag879
ag880
ag1210
ag933
ag818
ag239
ag240
ag819
ag310
ag820
ag821
ag822
ag823
asg803
(lp1651
g92
ag1504
ag933
ag935
ag745
ag316
ag936
asg981
(lp1652
g1393
ag1318
ag474
ag476
ag477
ag478
ag479
ag480
aS'UTA'
p1653
aS'UTA'
p1654
ag653
asg157
(lp1655
sg646
(lp1656
g647
ag648
ag649
ag568
ag650
ag559
ag561
ag562
ag563
ag564
ag1191
ag1204
ag1205
ag1206
ag37
ag222
ag228
ag229
asg88
(lp1657
g672
ag808
ag998
ag803
ag1504
ag933
ag935
ag745
ag316
ag936
asg566
(lp1658
g480
asg477
(lp1659
g478
ag479
ag480
asg478
(lp1660
g479
ag480
ag416
asg1181
(lp1661
g1249
ag1338
ag1108
ag1109
ag828
ag526
ag527
ag647
ag648
ag707
ag708
ag709
ag38
ag224
ag234
ag235
ag236
asg649
(lp1662
g568
ag650
ag559
ag561
ag562
ag563
ag564
ag865
aS'MRS'
p1663
ag825
ag1350
ag402
ag494
ag495
asg1202
(lp1664
g1181
ag1249
ag1338
ag1108
ag1109
ag525
ag646
ag1204
ag1205
ag1206
ag37
ag222
ag228
ag229
asg611
(lp1665
g951
aS'CRO'
p1666
ag612
ag126
ag613
ag614
ag615
ag616
ag354
ag355
ag617
asg1088
(lp1667
g1202
ag1203
ag1181
ag1249
ag1338
ag1108
ag1109
ag268
ag97
ag410
ag1089
ag523
ag545
ag546
ag547
ag548
ag549
ag550
ag551
ag34
ag35
ag303
ag348
ag349
ag350
ag351
ag352
asg480
(lp1668
S'UTU'
p1669
asg1430
(lp1670
g1088
ag1202
ag1203
ag1181
ag1249
ag1338
ag1108
ag1109
ag1019
ag267
ag521
ag536
ag537
ag538
ag539
ag540
ag541
ag542
ag32
ag33
ag302
ag345
asg1300
(lp1671
sg1484
(lp1672
sg672
(lp1673
g360
asg1456
(lp1674
g1430
ag1431
ag1088
ag1202
ag1203
ag1181
ag1249
ag1338
ag1108
ag1109
ag266
ag373
ag374
ag589
ag607
ag608
ag609
ag25
ag296
ag323
ag324
ag325
asS'IST'
p1675
(lp1676
S'PST'
p1677
ag202
ag871
asg1418
(lp1678
g1456
ag1430
ag1431
ag1088
ag1202
ag1203
ag1181
ag1249
ag1338
ag1108
ag1109
ag264
ag269
ag270
ag618
ag622
ag623
ag624
ag625
ag21
ag327
ag328
ag338
asg1145
(lp1679
g237
ag1146
ag239
ag240
ag241
ag242
ag243
ag244
ag245
ag246
ag247
ag248
ag249
ag273
ag1014
ag1015
ag633
aS'WEB'
p1680
asg590
(lp1681
g592
ag593
ag521
ag523
ag524
ag525
ag526
ag527
ag528
ag529
ag530
ag531
ag532
ag533
ag289
ag913
ag27
ag297
ag298
ag434
asg1065
(lp1682
sg140
(lp1683
g465
ag188
ag155
ag493
asg897
(lp1684
g140
ag465
ag188
ag155
ag493
asg745
(lp1685
g316
ag936
asg465
(lp1686
g188
ag155
ag493
ag1123
asg316
(lp1687
g322
ag204
ag936
asS'KAI'
p1688
(lp1689
S'KAJ'
p1690
ag1089
ag1250
ag1339
ag1110
ag1111
ag1326
ag912
ag590
ag591
ag27
ag297
ag298
ag434
asg739
(lp1691
g993
aS'YEP'
p1692
ag857
ag869
ag884
ag931
ag1227
ag519
ag150
ag151
ag107
ag143
ag740
asg1089
(lp1693
g1250
ag1339
ag1110
ag1111
ag733
ag734
ag411
ag98
ag523
ag545
ag546
ag547
ag548
ag549
ag550
ag551
ag34
ag35
ag303
ag348
ag349
ag350
ag351
ag352
asg665
(lp1694
g666
ag667
ag668
aS'OPT'
p1695
asg188
(lp1696
g155
ag493
ag806
ag189
asg563
(lp1697
S'MOY'
p1698
ag1112
ag1113
ag1114
ag1115
ag42
ag200
ag218
asg155
(lp1699
g493
ag156
ag157
asg1339
(lp1700
g1110
ag1111
ag530
ag561
ag580
ag581
ag582
ag40
ag198
ag216
ag583
asg614
(lp1701
g490
ag491
ag615
ag616
ag354
ag355
ag617
asg1250
(lp1702
g1339
ag1110
ag1111
ag878
ag395
ag396
ag529
ag568
ag650
ag572
ag573
ag574
ag575
ag576
ag39
ag194
ag225
ag205
ag206
ag207
ag208
ag209
asg204
(lp1703
sS'PYA'
p1704
(lp1705
g261
ag1065
asg1110
(lp1706
g835
ag532
ag563
ag564
ag1112
ag1113
ag1114
ag1115
ag42
ag200
ag218
asg117
(lp1707
g80
ag665
ag118
ag119
ag120
ag121
ag122
ag48
asg1154
(lp1708
g614
ag464
ag60
ag635
ag935
aS'SHE'
p1709
ag311
ag312
asg80
(lp1710
g665
ag81
ag82
ag83
ag84
ag85
ag86
ag87
ag88
aS'OPE'
p1711
asS'DIE'
p1712
(lp1713
S'DIG'
p1714
aS'DIM'
p1715
aS'DIN'
p1716
aS'DIP'
p1717
aS'DIS'
p1718
aS'DIT'
p1719
aS'DIV'
p1720
ag1117
ag790
ag998
ag442
ag458
ag461
ag462
ag463
ag464
ag131
ag313
ag465
asS'OCH'
p1721
(lp1722
S'OCK'
p1723
aS'TCH'
p1724
asg350
(lp1725
g228
ag234
ag494
ag206
ag207
ag216
ag217
ag218
ag738
ag148
ag149
ag106
ag909
ag177
ag351
ag352
asg368
(lp1726
g1473
ag755
ag828
ag706
ag829
ag257
ag17
ag233
ag262
asg1495
(lp1727
g1629
ag463
ag377
ag1535
ag431
ag415
ag388
ag371
ag399
ag423
ag1009
aS'PUA'
p1728
ag1704
ag1147
ag45
ag897
asg550
(lp1729
g1206
ag1350
ag576
ag582
ag1610
ag1114
ag1115
ag64
ag639
ag34
ag35
ag303
ag348
ag349
ag350
ag351
ag352
asg1649
(lp1730
g1571
ag1573
ag476
asS'ITS'
p1731
(lp1732
sg154
(lp1733
g17
ag826
ag973
ag974
ag227
ag921
asg958
(lp1734
g959
ag1102
ag1540
aS'GOY'
p1735
ag1562
ag1634
ag1481
ag1698
ag987
ag1035
ag68
ag712
ag180
ag1033
ag1036
asg255
(lp1736
g822
ag739
ag993
ag1692
ag857
ag869
ag884
ag931
ag1227
ag519
ag174
ag256
asg935
(lp1737
g745
ag316
ag936
asS'IFE'
p1738
(lp1739
g1097
ag1395
asg485
(lp1740
g1224
ag509
ag368
ag369
ag1473
ag470
ag760
ag761
ag659
ag762
ag69
ag170
ag517
asg447
(lp1741
g485
ag1224
ag509
ag368
ag369
ag1473
ag797
ag798
ag799
ag633
ag586
ag337
asg913
(lp1742
g534
ag535
aS'LUO'
p1743
ag706
ag681
aS'LUX'
p1744
ag914
ag915
asg509
(lp1745
g368
ag369
ag1473
ag754
ag892
ag410
ag907
ag908
ag719
ag639
ag184
ag147
ag909
ag143
asS'KYL'
p1746
(lp1747
g360
asg1224
(lp1748
g509
ag368
ag369
ag1473
ag497
ag498
ag805
ag534
ag535
ag700
ag637
ag638
ag186
ag344
ag806
asS'ELI'
p1749
(lp1750
g1274
ag1266
aS'ELM'
p1751
aS'ELS'
p1752
ag1314
asg809
(lp1753
g1198
ag1645
aS'COE'
p1754
aS'CUE'
p1755
ag810
ag811
ag812
ag813
ag814
ag815
ag816
ag817
ag818
ag239
ag240
ag819
ag310
ag820
ag821
ag822
ag823
asg1548
(lp1756
S'IMI'
p1757
ag1549
ag1130
asg1227
(lp1758
g519
ag213
asg1209
(lp1759
g1634
ag697
ag579
ag986
ag928
ag66
ag1501
ag971
ag1302
ag1032
ag1388
asg1233
(lp1760
g290
ag992
ag1639
ag1640
ag879
ag880
ag1210
ag241
asg1028
(lp1761
g1357
ag1358
ag1359
asg974
(lp1762
sg622
(lp1763
g628
ag629
ag596
ag642
ag607
ag643
ag644
ag536
ag545
ag645
ag646
ag647
ag648
ag649
ag568
ag650
ag559
ag561
ag562
ag563
ag564
ag271
ag1590
ag623
ag624
ag625
ag21
ag327
ag328
ag338
asg1363
(lp1764
g912
ag1728
ag1298
ag1148
ag334
asg1198
(lp1765
g952
ag1199
ag1050
ag280
aS'KEP'
p1766
ag1639
ag1640
aS'PEP'
p1767
ag245
ag1692
aS'ZEP'
p1768
asg531
(lp1769
g532
ag533
aS'LEX'
p1770
ag1480
ag1744
ag562
aS'PAX'
p1771
ag1610
ag41
ag199
ag217
aS'ZAX'
p1772
asg532
(lp1773
g533
ag836
ag1481
ag563
ag564
ag1112
ag1113
ag1114
ag1115
ag42
ag200
ag218
asg929
(lp1774
S'SEX'
p1775
ag837
ag1501
ag930
ag931
asS'END'
p1776
(lp1777
S'ENS'
p1778
ag1391
ag1040
asg676
(lp1779
g922
ag1045
aS'SSU'
p1780
aS'STU'
p1781
ag973
asg220
(lp1782
g1032
ag1033
ag221
ag601
asg1032
(lp1783
g1033
ag1388
asg517
(lp1784
g909
ag921
ag262
ag221
asg1031
(lp1785
g220
ag1032
ag1033
ag921
asg44
(lp1786
g1709
ag1130
ag615
ag616
ag676
ag922
ag45
ag46
ag47
ag48
ag49
ag331
ag558
asg1030
(lp1787
g1031
ag220
ag1032
ag1033
ag416
aS'ZOO'
p1788
asg882
(lp1789
g929
ag1775
ag837
ag15
ag55
ag883
ag219
ag884
asg1709
(lp1790
g1130
ag615
ag616
ag676
ag922
ag131
ag742
ag743
ag744
ag745
ag311
ag312
asS'AFT'
p1791
(lp1792
g553
ag661
ag662
ag663
ag664
ag665
ag666
ag667
ag668
aS'EFT'
p1793
ag125
asg74
(lp1794
g1124
ag1005
ag106
ag1030
ag1031
ag220
ag1032
ag1033
ag517
asg1005
(lp1795
g106
ag1030
ag1031
ag220
ag1032
ag1033
asg607
(lp1796
g643
ag644
ag536
ag545
ag645
ag646
ag647
ag648
ag649
ag568
ag650
ag559
ag561
ag562
ag563
ag564
aS'MEG'
p1797
ag375
ag1531
ag901
ag608
ag609
ag25
ag296
ag323
ag324
ag325
asg615
(lp1798
g676
ag922
ag354
ag355
ag617
asg340
(lp1799
g343
ag105
ag356
ag226
ag231
ag232
ag201
ag946
ag971
ag212
ag180
ag405
asS'LEV'
p1800
(lp1801
g695
ag696
ag1770
ag836
ag1580
ag990
ag247
asg1781
(lp1802
g715
ag973
ag1669
asg1780
(lp1803
g1781
ag973
asg525
(lp1804
g526
ag527
ag528
ag529
ag530
ag531
ag532
ag533
ag385
ag1190
ag646
ag1204
ag1205
ag1206
ag37
ag222
ag228
ag229
asg884
(lp1805
g931
ag1227
ag519
ag601
asg1054
(lp1806
g1780
ag914
asg398
(lp1807
g422
ag984
ag843
ag399
ag400
ag15
ag56
ag57
asg1133
(lp1808
g1054
ag914
ag1488
ag476
asg545
(lp1809
g645
ag646
ag647
ag648
ag649
ag568
ag650
ag559
ag561
ag562
ag563
ag564
ag735
ag414
ag99
ag100
ag907
ag546
ag547
ag548
ag549
ag550
ag551
ag34
ag35
ag303
ag348
ag349
ag350
ag351
ag352
asg463
(lp1810
g377
ag1535
ag431
ag415
ag388
ag371
ag399
ag423
ag1122
ag464
ag131
ag313
ag465
asg842
(lp1811
g681
ag843
ag844
ag260
ag600
ag203
ag221
asg706
(lp1812
g681
ag1744
ag829
ag257
ag17
ag233
ag262
asg83
(lp1813
S'ATI'
p1814
ag84
ag85
ag86
ag87
ag88
ag1445
asg681
(lp1815
g1744
ag843
ag844
ag260
ag600
ag203
ag221
asg825
(lp1816
g1570
ag259
ag640
ag826
ag53
asg120
(lp1817
g83
ag1814
ag121
ag122
ag1421
ag1370
ag1653
ag1654
asg1744
(lp1818
g1570
ag211
ag1529
asg1723
(lp1819
S'OWK'
p1820
aS'TCK'
p1821
asg1669
(lp1822
sg1570
(lp1823
g211
ag1529
asg212
(lp1824
g180
ag1529
ag213
asg1814
(lp1825
sg659
(lp1826
g901
ag700
ag907
ag825
ag1570
ag762
ag69
ag170
ag517
asg936
(lp1827
g177
asg627
(lp1828
g895
ag605
ag606
ag913
ag534
ag535
ag1743
ag706
ag681
ag1744
asg1357
(lp1829
g1675
ag1358
ag1359
asg895
(lp1830
g605
ag606
ag913
ag534
ag535
ag1743
ag706
ag681
ag1744
ag1504
ag635
ag743
ag744
ag315
asS'ISM'
p1831
(lp1832
g1357
ag1675
asg605
(lp1833
g913
ag534
ag535
ag1743
ag706
ag681
ag1744
ag901
ag716
ag636
ag321
ag436
asg700
(lp1834
g907
ag825
ag1570
ag637
ag638
ag186
ag344
ag806
asg177
(lp1835
sg907
(lp1836
g825
ag1570
ag908
ag719
ag639
ag184
ag147
ag909
ag143
asg534
(lp1837
g1743
ag706
ag681
ag1744
ag700
ag637
ag638
ag186
ag344
ag806
asg942
(lp1838
g538
ag708
ag573
ag1723
ag1820
ag29
ag943
ag944
asg1743
(lp1839
g706
ag681
ag1744
aS'LWO'
p1840
ag1300
asS'ASS'
p1841
(lp1842
g668
ag1218
aS'ESS'
p1843
asg908
(lp1844
g843
ag719
ag639
ag184
ag147
ag909
ag143
asg1323
(lp1845
g1841
ag668
asg855
(lp1846
g882
ag929
ag1775
ag837
ag11
ag137
ag17
ag856
ag857
ag858
asg668
(lp1847
g1675
ag1677
ag202
ag871
asg843
(lp1848
g844
ag260
ag600
ag203
ag221
asg819
(lp1849
g1151
ag737
ag855
ag882
ag929
ag1775
ag837
ag1709
ag131
ag742
ag743
ag744
ag745
ag310
ag820
ag821
ag822
ag823
asg837
(lp1850
g922
ag924
ag925
ag710
ag712
ag713
ag714
ag715
ag838
asg1049
(lp1851
g601
ag1046
ag1388
ag213
ag1036
asg1151
(lp1852
g737
ag855
ag882
ag929
ag1775
ag837
ag132
ag159
ag319
asg119
(lp1853
g82
aS'ASH'
p1854
ag1273
ag1323
ag1841
ag668
ag120
ag121
ag122
asg1618
(lp1855
g819
ag1151
ag737
ag855
ag882
ag929
ag1775
ag837
ag128
ag138
aS'TEC'
p1856
asg82
(lp1857
g1854
ag1273
ag1323
ag1841
ag668
ag83
ag84
ag85
ag86
ag87
ag88
ag513
ag1444
asg1273
(lp1858
g1323
ag1841
ag668
ag1215
ag1216
asg737
(lp1859
g855
ag882
ag929
ag1775
ag837
ag135
ag103
ag104
ag184
ag347
ag738
ag739
ag740
asg1854
(lp1860
g1273
ag1323
ag1841
ag668
ag1213
aS'USH'
p1861
asg798
(lp1862
S'NUL'
p1863
ag908
ag843
ag799
ag633
ag586
ag337
asS'UMP'
p1864
(lp1865
S'UMU'
p1866
asg1369
(lp1867
g1757
aS'IMP'
p1868
aS'IMU'
p1869
ag977
ag1370
ag767
ag994
ag47
asg1422
(lp1870
S'FRO'
p1871
ag1541
ag975
ag977
ag978
ag979
ag980
ag333
ag981
asg1330
(lp1872
g340
ag343
ag105
ag356
ag226
ag231
ag232
ag201
ag946
ag971
ag212
ag180
ag1488
ag915
ag1489
ag1331
asg792
(lp1873
g793
ag794
ag795
ag796
ag1224
ag497
ag498
ag805
ag534
ag535
ag700
ag637
ag638
ag186
ag344
ag806
asg793
(lp1874
g794
ag795
ag796
ag509
ag754
ag892
ag410
ag907
ag908
ag719
ag639
ag184
ag147
ag909
ag143
asg794
(lp1875
g795
ag796
ag1743
ag1300
asg1757
(lp1876
g1868
ag1869
asg208
(lp1877
g583
ag884
ag601
ag209
asg583
(lp1878
g931
ag1388
asg1019
(lp1879
g877
ag1207
ag267
ag699
ag1020
asg1871
(lp1880
g1541
ag1620
ag478
ag416
asg229
(lp1881
g235
ag495
ag208
ag583
ag1692
ag156
asg495
(lp1882
g208
ag583
ag869
ag51
ag53
asg774
(lp1883
g746
ag775
ag721
ag748
ag723
ag724
ag725
ag726
aS'BIG'
p1884
aS'BOG'
p1885
aS'BUG'
p1886
aS'DEG'
p1887
aS'KEG'
p1888
ag603
ag1797
aS'PEG'
p1889
aS'PEG'
p1890
ag242
ag1151
ag319
asg345
(lp1891
g351
ag358
ag229
ag235
ag495
ag208
ag583
ag1071
asg1485
(lp1892
g981
ag1653
ag1654
ag653
asg358
(lp1893
g229
ag235
ag495
ag208
ag583
ag993
asg351
(lp1894
g358
ag229
ag235
ag495
ag208
ag583
ag739
ag150
ag151
ag107
ag143
ag352
asg1869
(lp1895
g1866
asg1101
(lp1896
g958
ag1102
ag1309
ag1310
ag925
asg943
(lp1897
g345
ag351
ag358
ag229
ag235
ag495
ag208
ag583
aS'YOK'
p1898
ag944
asg795
(lp1899
g796
ag407
ag893
ag720
ag154
ag227
ag921
asg307
(lp1900
g685
ag943
ag345
ag351
ag358
ag229
ag235
ag495
ag208
ag583
ag255
ag174
ag308
asg1541
(lp1901
g1159
ag1277
ag181
ag418
asg502
(lp1902
g497
ag498
ag754
ag407
ag755
ag756
ag393
ag757
ag758
ag759
ag1863
ag718
asg754
(lp1903
g407
ag755
ag756
ag393
ag757
ag758
ag759
ag176
ag892
ag410
ag907
ag908
ag719
ag639
ag184
ag147
ag909
ag143
asg1529
(lp1904
sg733
(lp1905
g1766
ag850
ag878
aS'KEX'
p1906
ag835
ag411
ag98
ag544
ag735
ag736
ag737
ag347
ag738
ag739
ag740
asg786
(lp1907
g256
ag823
ag752
ag740
ag1768
ag858
ag1010
ag1011
asg1172
(lp1908
g1354
ag1291
ag1356
ag1028
ag1357
ag1358
ag1359
ag524
ag645
ag36
ag304
ag305
ag358
asg256
(lp1909
g823
ag752
ag740
ag1768
ag858
asg823
(lp1910
g752
ag740
ag1768
ag858
asg1888
(lp1911
g733
ag734
ag1766
ag850
ag878
ag1906
ag835
ag603
ag1797
ag1889
ag1890
ag242
ag1151
ag319
asg1232
(lp1912
g1888
ag733
ag734
ag1766
ag850
ag878
ag1906
ag835
ag1233
ag241
asg1108
(lp1913
g1634
ag1110
ag1111
ag532
ag563
ag564
ag1112
ag1113
ag1114
ag1115
ag42
ag200
ag218
asg1237
(lp1914
g814
ag1232
ag1888
ag733
ag734
ag1766
ag850
ag878
ag1906
ag835
ag594
ag1238
ag1239
ag237
ag1146
ag252
ag253
ag254
ag255
ag256
asg740
(lp1915
g1768
ag858
asS'KEB'
p1916
(lp1917
g1237
ag814
ag1232
ag1888
ag733
ag734
ag1766
ag850
ag878
ag1906
ag835
ag1362
aS'NEB'
p1918
ag1145
ag1680
asg778
(lp1919
g1916
ag1237
ag814
ag1232
ag1888
ag733
ag734
ag1766
ag850
ag878
ag1906
ag835
ag557
ag1360
ag978
ag979
ag1363
ag779
ag780
ag781
ag782
ag783
ag43
ag330
ag784
ag785
ag786
asg1370
(lp1920
g1358
ag1731
ag767
ag994
ag1653
ag1654
asg858
(lp1921
sg915
(lp1922
g344
ag147
ag227
ag233
ag203
ag1529
ag1489
asg1768
(lp1923
g858
ag157
asg407
(lp1924
g755
ag756
ag393
ag757
ag758
ag759
ag408
ag893
ag720
ag154
ag227
ag921
asg344
(lp1925
g147
ag227
ag233
ag203
ag1529
ag806
asg835
(lp1926
g836
ag837
ag838
asg1906
(lp1927
g835
ag1770
ag248
ag249
ag1775
ag1196
ag1227
asg759
(lp1928
g974
asg334
(lp1929
g337
ag315
ag321
ag915
ag344
ag147
ag227
ag233
ag203
ag1529
ag335
asg337
(lp1930
g315
ag321
ag915
ag344
ag147
ag227
ag233
ag203
ag1529
asg878
(lp1931
g1906
ag835
ag395
ag396
ag678
ag570
ag879
ag880
ag881
ag246
ag882
ag883
ag219
ag884
asg850
(lp1932
g878
ag1906
ag835
ag1138
ag705
ag851
ag852
ag853
ag854
ag855
ag856
ag857
ag858
asg321
(lp1933
g915
ag344
ag147
ag227
ag233
ag203
ag1529
ag322
ag436
asS'AAM'
p1934
(lp1935
S'AIM'
p1936
aS'ARM'
p1937
ag1217
ag1382
ag1423
ag1426
ag1427
ag1428
ag1429
ag1430
ag1431
ag521
ag536
ag537
ag538
ag539
ag540
ag541
ag542
ag32
ag33
ag302
ag345
asS'AAL'
p1938
(lp1939
g1934
aS'AIL'
p1940
ag1263
ag1265
ag1380
ag1381
ag1432
ag1434
ag1435
ag1436
ag644
ag703
ag30
ag31
ag300
ag301
ag341
asg262
(lp1941
g221
asg920
(lp1942
sg1245
(lp1943
g1473
ag393
ag841
ag842
ag681
ag843
ag844
ag260
ag600
ag203
ag221
asS'POX'
p1944
(lp1945
g1035
ag1065
ag67
ag212
ag213
asg757
(lp1946
g759
asg727
(lp1947
g860
ag873
aS'BIZ'
p1948
ag728
ag729
ag730
ag1716
ag444
ag445
ag455
ag510
ag268
ag411
ag412
ag413
ag414
ag415
ag135
ag144
ag148
ag149
ag150
ag151
asg1447
(lp1949
g727
ag860
ag873
ag1948
ag1448
ag1222
ag1715
ag454
ag499
ag267
ag426
ag427
ag428
ag429
ag430
ag431
ag432
ag134
ag187
ag188
ag189
asg1338
(lp1950
g1108
ag1109
ag1207
ag1209
ag1339
ag530
ag561
ag580
ag581
ag582
ag40
ag198
ag216
ag583
asg1035
(lp1951
g1277
ag68
ag712
ag180
ag1033
ag1036
asg1884
(lp1952
g1447
ag727
ag860
ag873
ag1948
ag1885
ag1886
ag1450
ag1714
ag443
ag452
ag266
ag375
ag376
ag377
ag378
ag132
ag160
ag161
ag162
asg1397
(lp1953
g1884
ag1447
ag727
ag860
ag873
ag1948
ag1398
ag1399
ag1400
ag1462
aS'DID'
p1954
ag441
ag466
ag471
ag472
ag473
ag250
ag130
ag172
ag173
ag174
asg1751
(lp1955
g1752
ag1314
aS'EMM'
p1956
aS'OLM'
p1957
asg1411
(lp1958
g1397
ag1884
ag1447
ag727
ag860
ag873
ag1948
ag1412
ag1413
ag1414
aS'DIB'
p1959
ag439
ag448
ag449
ag264
ag271
ag272
ag273
ag274
ag275
asg1192
(lp1960
g1538
ag928
ag1944
ag1035
ag720
ag153
ag226
ag1031
asg102
(lp1961
g1192
ag1193
ag1538
ag928
ag1944
ag1035
ag719
ag64
ag103
ag104
ag105
ag106
ag107
asg688
(lp1962
g689
ag690
ag691
ag692
ag693
ag444
ag445
ag93
ag509
ag732
ag279
ag733
ag734
ag544
ag735
ag736
ag737
ag347
ag738
ag739
ag740
asg962
(lp1963
g1070
ag102
ag1192
ag1193
ag1538
ag928
ag1944
ag1035
ag718
ag191
ag192
ag340
ag405
asg1070
(lp1964
g102
ag1192
ag1193
ag1538
ag928
ag1944
ag1035
ag343
ag1071
asg1948
(lp1965
g1581
ag1604
asS'POH'
p1966
(lp1967
g1329
ag962
ag1070
ag102
ag1192
ag1193
ag1538
ag928
ag1944
ag1035
ag1557
asg408
(lp1968
g920
asg873
(lp1969
g1948
ag874
ag875
ag1244
ag1719
ag364
ag390
ag394
ag395
ag396
ag397
ag398
ag399
ag400
ag15
ag56
ag57
asg1122
(lp1970
g1966
ag1329
ag962
ag1070
ag102
ag1192
ag1193
ag1538
ag928
ag1944
ag1035
ag60
ag742
ag314
ag1123
ag1124
ag1125
asg1013
(lp1971
g1002
ag1122
ag1966
ag1329
ag962
ag1070
ag102
ag1192
ag1193
ag1538
ag928
ag1944
ag1035
ag799
ag1014
ag1015
ag585
ag1016
asg860
(lp1972
g873
ag1948
ag861
ag862
ag1718
ag1091
ag1467
ag13
ag14
ag493
ag1468
ag51
asg1009
(lp1973
g1013
ag1002
ag1122
ag1966
ag1329
ag962
ag1070
ag102
ag1192
ag1193
ag1538
ag928
ag1944
ag1035
ag1728
ag1704
ag332
ag1010
ag1011
asg1358
(lp1974
g1731
ag1359
ag127
asg501
(lp1975
g94
ag489
ag1136
ag1137
ag1140
ag392
ag1735
ag502
ag961
ag962
ag191
ag192
ag340
ag405
asg489
(lp1976
g1136
ag1137
ag1140
ag392
ag1735
ag1479
ag991
ag356
ag1030
ag1788
asg94
(lp1977
g489
ag1136
ag1137
ag1140
ag392
ag1735
ag754
ag176
ag95
ag96
ag97
ag98
ag99
ag100
ag101
ag102
ag64
ag103
ag104
ag105
ag106
ag107
asg1249
(lp1978
g1338
ag1108
ag1109
ag877
ag1212
ag842
ag1250
ag529
ag568
ag650
ag572
ag573
ag574
ag575
ag576
ag39
ag194
ag225
ag205
ag206
ag207
ag208
ag209
asg925
(lp1979
g710
ag712
ag713
ag714
ag715
asg1375
(lp1980
g1376
ag1377
ag1378
ag1379
ag1380
ag1381
ag1382
ag1383
ag1384
ag1351
ag1343
ag1345
ag1340
ag1346
ag1332
ag1334
ag620
ag628
ag629
ag630
ag22
ag23
ag631
ag632
asS'ADZ'
p1981
(lp1982
S'ODZ'
p1983
asS'GOG'
p1984
(lp1985
S'GOI'
p1986
ag501
ag94
ag489
ag1136
ag1137
ag1140
ag392
ag1735
aS'HOG'
p1987
ag373
ag604
ag1531
ag1001
ag61
ag159
ag320
ag435
ag1005
asS'GOA'
p1988
(lp1989
g482
ag468
ag469
ag1984
ag1986
ag501
ag94
ag489
ag1136
ag1137
ag1140
ag392
ag1735
ag975
ag1360
ag1364
ag1365
ag1006
ag1009
ag332
ag1010
ag1011
asg645
(lp1990
g646
ag647
ag648
ag649
ag568
ag650
ag559
ag561
ag562
ag563
ag564
ag988
ag612
ag991
ag36
ag304
ag305
ag358
asg556
(lp1991
g673
ag557
ag44
ag331
ag558
asg482
(lp1992
g468
ag469
ag1984
ag1986
ag501
ag94
ag489
ag1136
ag1137
ag1140
ag392
ag1735
aS'HOB'
p1993
ag269
ag270
ag1362
ag621
ag1590
ag1008
ag1013
ag1014
ag1015
ag585
ag1016
asg832
(lp1994
g757
ag758
asg1735
(lp1995
g757
ag758
ag1562
ag1634
ag1481
ag1698
ag987
ag1035
ag68
ag712
ag180
ag1033
ag1036
asg392
(lp1996
g1735
ag393
ag1470
ag1212
ag679
ag680
ag571
ag984
ag1538
ag65
ag55
ag201
ag220
ag601
asg673
(lp1997
g674
ag675
ag676
asg235
(lp1998
g495
ag208
ag583
ag857
ag1049
ag236
asg46
(lp1999
g925
ag47
ag48
ag49
ag1297
asg1140
(lp2000
g392
ag1735
ag756
ag1141
ag1142
asg205
(lp2001
g403
ag883
ag206
ag207
ag208
ag209
asg796
(lp2002
g1744
ag1570
ag211
ag1529
asg921
(lp2003
g262
ag221
asg713
(lp2004
g715
asg1325
(lp2005
g1320
ag1315
ag1156
ag1158
ag1159
asg1868
(lp2006
g1869
ag1864
asg689
(lp2007
g690
ag691
ag692
ag693
ag364
ag1472
ag1473
ag876
ag282
ag877
ag878
ag678
ag570
ag879
ag880
ag881
ag246
ag882
ag883
ag219
ag884
asg1610
(lp2008
g1114
ag1115
ag248
ag249
ag424
ag67
ag211
ag41
ag199
ag217
ag1772
asg269
(lp2009
g1120
ag1121
ag373
ag97
ag1141
ag1212
ag1209
ag1634
ag1362
ag621
ag1590
ag1008
ag1013
ag1014
ag1015
ag585
ag1016
asg209
(lp2010
g1772
asg965
(lp2011
g759
aS'TEZ'
p2012
ag519
asg1720
(lp2013
g1580
asg685
(lp2014
g943
ag345
ag351
ag358
ag229
ag235
ag495
ag208
ag583
ag141
asg1205
(lp2015
g709
ag574
ag575
ag567
ag581
ag1771
ag1113
ag1767
ag388
ag1192
ag1193
ag720
ag1206
ag37
ag222
ag228
ag229
asg623
(lp2016
g656
ag608
ag941
ag537
ag546
ag547
ag1204
ag707
ag572
ag580
ag1112
ag1918
ag272
ag1008
ag798
ag624
ag625
ag21
ag327
ag328
ag338
asg709
(lp2017
g574
ag575
ag567
ag581
ag1771
ag1113
ag853
ag854
ag371
ag257
ag261
ag38
ag224
ag234
ag235
ag236
asg574
(lp2018
g567
ag581
ag1771
ag1113
ag881
ag399
ag1538
ag1677
ag260
ag576
ag39
ag194
ag225
ag205
ag206
ag207
ag208
ag209
asg567
(lp2019
g581
ag1771
ag1113
ag675
ag196
ag403
asg581
(lp2020
g1771
ag1113
ag926
ag928
ag582
ag40
ag198
ag216
ag583
asg1771
(lp2021
g1113
ag423
ag1944
ag1065
ag1610
ag41
ag199
ag217
ag1772
asg1113
(lp2022
g1310
ag1035
ag1277
ag1114
ag1115
ag42
ag200
ag218
asg585
(lp2023
g138
ag70
ag742
ag159
ag1557
ag1558
ag191
ag192
ag103
ag104
ag153
ag55
ag1045
ag1559
ag1501
ag712
ag586
ag1016
asg1538
(lp2024
g928
ag1944
ag1035
ag1677
ag260
ag65
ag55
ag201
ag220
ag601
asg630
(lp2025
g597
ag683
ag703
ag539
ag540
ag548
ag549
ag1205
ag709
ag574
ag575
ag567
ag581
ag1771
ag1113
ag1629
ag22
ag23
ag631
ag632
asg597
(lp2026
g683
ag703
ag539
ag540
ag548
ag549
ag1205
ag709
ag574
ag575
ag567
ag581
ag1771
ag1113
ag1239
ag1002
ag762
ag598
ag24
ag293
ag329
ag306
ag307
ag308
asg875
(lp2027
g832
ag1245
ag1473
ag393
ag841
ag842
ag681
ag843
ag844
ag260
ag600
ag203
ag221
asg1778
(lp2028
g1306
ag1843
ag1484
asg87
(lp2029
g88
asg683
(lp2030
g703
ag539
ag540
ag548
ag549
ag1205
ag709
ag574
ag575
ag567
ag581
ag1771
ag1113
ag1966
ag684
ag26
ag516
ag685
asg272
(lp2031
g473
ag376
ag506
ag430
ag386
ag387
ag398
ag422
ag1008
ag798
ag273
ag274
ag275
asg703
(lp2032
g539
ag540
ag548
ag549
ag1205
ag709
ag574
ag575
ag567
ag581
ag1771
ag1113
ag962
ag718
ag30
ag31
ag300
ag301
ag341
asg539
(lp2033
g548
ag549
ag1205
ag709
ag574
ag575
ag567
ag581
ag1771
ag1113
ag431
ag1070
ag541
ag542
ag32
ag33
ag302
ag345
asg548
(lp2034
g1205
ag709
ag574
ag575
ag567
ag581
ag1771
ag1113
ag736
ag415
ag102
ag719
ag550
ag551
ag34
ag35
ag303
ag348
ag349
ag350
ag351
ag352
asg1775
(lp2035
g837
ag16
ag1196
ag1227
asg434
(lp2036
g341
ag348
ag349
ag402
ag205
ag403
ag291
asS'GAJ'
p2037
(lp2038
g1435
ag1428
ag1085
ag1201
ag1180
ag1349
ag1248
aS'GAU'
p2039
ag1337
ag1106
ag1553
ag1690
ag1608
ag1609
ag28
ag299
asg424
(lp2040
g67
ag211
ag16
asg1820
(lp2041
S'OWL'
p2042
aS'OWN'
p2043
asg693
(lp2044
g965
ag2012
ag519
asg400
(lp2045
g424
ag65
ag600
ag15
ag56
ag57
asg1453
(lp2046
g1427
ag1083
ag1084
ag1179
ag1247
ag1104
ag1105
ag443
ag1578
ag1454
ag1455
ag1456
ag589
ag607
ag608
ag609
ag25
ag296
ag323
ag324
ag325
asg389
(lp2047
g400
ag424
ag136
ag146
ag155
ag156
ag157
asg43
(lp2048
g1618
ag819
ag1151
ag737
ag855
ag882
ag929
ag1775
ag837
ag44
ag45
ag46
ag47
ag48
ag49
ag330
ag784
ag785
ag786
asg1261
(lp2049
g2043
asg1265
(lp2050
g1261
ag2042
asg1252
(lp2051
g432
ag490
ag491
ag389
ag400
ag424
ag63
asg143
(lp2052
g53
asg378
(lp2053
g1252
ag432
ag490
ag491
ag389
ag400
ag424
ag61
ag636
ag132
ag160
ag161
ag162
asg86
(lp2054
g1265
ag1261
ag87
ag88
ag801
ag802
ag1317
asS'AWD'
p2055
(lp2056
g86
ag1265
ag1261
aS'OWD'
p2057
asg273
(lp2058
g1630
ag250
ag464
ag378
ag1252
ag432
ag490
ag491
ag389
ag400
ag424
ag1014
ag1015
ag633
ag274
ag275
asg846
(lp2059
g861
ag874
ag1335
ag831
ag847
ag953
ag1058
ag1059
ag366
ag367
ag1136
ag1137
ag1138
ag899
ag983
ag231
ag232
ag1049
asg122
(lp2060
g2055
ag86
ag1265
ag1261
ag1494
ag994
ag996
ag49
ag335
asg1147
(lp2061
g273
ag1630
ag250
ag464
ag378
ag1252
ag432
ag490
ag491
ag389
ag400
ag424
ag1148
ag45
ag897
asg1460
(lp2062
S'HAK'
p2063
ag1436
ag1429
ag1086
ag1166
ag1168
ag1169
ag1170
ag1171
ag1107
ag890
ag643
ag683
ag684
ag26
ag516
ag685
asg1680
(lp2064
g254
ag821
ag292
ag1020
ag738
ag856
ag868
ag219
ag838
ag1016
asg784
(lp2065
g1680
ag254
ag821
ag292
ag1020
ag738
ag856
ag868
ag219
ag838
ag558
ag785
ag786
asg1087
(lp2066
g1172
ag1026
ag96
ag1088
ag1089
ag523
ag545
ag546
ag547
ag548
ag549
ag550
ag551
ag34
ag35
ag303
ag348
ag349
ag350
ag351
ag352
asg1436
(lp2067
g1429
ag1086
ag1166
ag1168
ag1169
ag1170
ag1171
ag1107
ag644
ag703
ag30
ag31
ag300
ag301
ag341
asg1429
(lp2068
g1086
ag1166
ag1168
ag1169
ag1170
ag1171
ag1107
ag278
ag499
ag805
ag1430
ag1431
ag521
ag536
ag537
ag538
ag539
ag540
ag541
ag542
ag32
ag33
ag302
ag345
asg1086
(lp2069
g1166
ag1168
ag1169
ag1170
ag1171
ag1107
ag279
ag510
ag95
ag892
ag1087
ag1088
ag1089
ag523
ag545
ag546
ag547
ag548
ag549
ag550
ag551
ag34
ag35
ag303
ag348
ag349
ag350
ag351
ag352
asg254
(lp2070
g821
ag292
ag1020
ag738
ag856
ag868
ag219
ag838
ag173
ag74
ag517
ag255
ag256
asg874
(lp2071
g1335
ag831
ag875
ag955
ag1061
ag1062
ag1472
ag392
ag1470
ag1212
ag679
ag680
ag571
ag984
ag1538
ag65
ag55
ag201
ag220
ag601
asg292
(lp2072
g1020
ag738
ag856
ag868
ag219
ag838
asS'GED'
p2073
(lp2074
g812
ag813
ag751
ag1017
ag732
ag964
ag849
ag863
ag876
ag834
ag965
ag466
ag468
ag469
ag470
ag1235
ag1237
ag594
ag1238
ag1239
ag237
ag1146
ag252
ag253
ag254
ag255
ag256
asg1406
(lp2075
g1455
ag1460
ag2063
ag1436
ag1429
ag1086
ag1166
ag1168
ag1169
ag1170
ag1171
ag1107
aS'HOD'
p2076
ag760
ag587
ag596
ag597
ag598
ag24
ag293
ag329
ag306
ag307
ag308
asg738
(lp2077
g856
ag868
ag219
ag838
ag148
ag149
ag106
ag909
ag177
ag739
ag740
asg1020
(lp2078
g738
ag856
ag868
ag219
ag838
ag189
asg1455
(lp2079
g1460
ag2063
ag1436
ag1429
ag1086
ag1166
ag1168
ag1169
ag1170
ag1171
ag1107
ag1987
ag889
ag1456
ag589
ag607
ag608
ag609
ag25
ag296
ag323
ag324
ag325
asg868
(lp2080
g219
ag838
ag1468
ag869
asg856
(lp2081
g868
ag219
ag838
ag18
ag262
ag857
ag858
asg1483
(lp2082
g1484
ag1711
ag1315
ag513
ag1317
asg1306
(lp2083
g1843
ag1663
ag479
asg1573
(lp2084
g476
asg125
(lp2085
g1695
ag1158
ag844
asg219
(lp2086
g838
ag57
ag220
ag221
ag884
asg1168
(lp2087
g1169
ag1170
ag1171
ag1107
ag280
ag383
ag1242
ag893
ag920
ag1202
ag1203
ag525
ag646
ag1204
ag1205
ag1206
ag37
ag222
ag228
ag229
asg838
(lp2088
g182
ag1033
ag418
asg1335
(lp2089
g831
ag956
ag1063
ag1499
ag1500
ag1209
ag697
ag579
ag986
ag928
ag66
ag1501
ag971
ag1302
ag1032
ag1388
asg1169
(lp2090
g1170
ag1171
ag1107
ag282
ag394
ag1470
ag841
ag1249
ag1250
ag529
ag568
ag650
ag572
ag573
ag574
ag575
ag576
ag39
ag194
ag225
ag205
ag206
ag207
ag208
ag209
asg1170
(lp2091
g1171
ag1107
ag559
ag567
ag196
ag403
asg331
(lp2092
g311
ag312
ag354
ag355
ag178
ag332
ag333
ag334
ag335
ag558
asg1171
(lp2093
g1107
ag283
ag1500
ag1338
ag1339
ag530
ag561
ag580
ag581
ag582
ag40
ag198
ag216
ag583
asg352
(lp2094
g236
ag209
ag1772
ag740
asg707
(lp2095
g572
ag580
ag1112
ag983
ag708
ag709
ag38
ag224
ag234
ag235
ag236
asg1549
(lp2096
g613
ag675
ag1329
ag1053
ag1130
asg507
(lp2097
g2042
ag133
ag193
asg613
(lp2098
g675
ag1620
ag614
ag615
ag616
ag354
ag355
ag617
asg944
(lp2099
g352
ag236
ag209
ag1772
asg506
(lp2100
g430
ag386
ag387
ag398
ag422
ag1863
ag507
ag133
ag193
asg430
(lp2101
g386
ag387
ag398
ag422
ag431
ag432
ag134
ag187
ag188
ag189
asg785
(lp2102
g255
ag822
ag739
ag993
ag1692
ag857
ag869
ag884
ag931
ag1227
ag519
ag786
asg325
(lp2103
g944
ag352
ag236
ag209
ag1772
ag162
asg308
(lp2104
g325
ag944
ag352
ag236
ag209
ag1772
ag256
asg384
(lp2105
g395
ag396
ag1187
ag385
ag386
ag387
ag388
ag389
ag136
ag146
ag155
ag156
ag157
asg822
(lp2106
g739
ag993
ag1692
ag857
ag869
ag884
ag931
ag1227
ag519
ag1125
ag823
asg632
(lp2107
g308
ag325
ag944
ag352
ag236
ag209
ag1772
asg473
(lp2108
g376
ag506
ag430
ag386
ag387
ag398
ag422
ag999
ag250
ag130
ag172
ag173
ag174
asg395
(lp2109
g397
ag398
ag399
ag400
ag15
ag56
ag57
asg227
(lp2110
g233
ag203
ag1529
ag921
asg422
(lp2111
g423
ag424
ag16
asg1378
(lp2112
g1379
ag1380
ag1381
ag1382
ag1383
ag1384
ag1351
ag1343
ag1345
ag1340
ag1346
ag1332
ag1334
ag774
ag1884
ag1885
ag1886
ag1439
ag1452
ag1453
ag1454
ag1455
ag1456
ag589
ag607
ag608
ag609
ag25
ag296
ag323
ag324
ag325
asg411
(lp2113
g384
ag395
ag396
ag98
ag412
ag413
ag414
ag415
ag135
ag144
ag148
ag149
ag150
ag151
asg426
(lp2114
g411
ag384
ag395
ag396
ag428
ag429
ag430
ag431
ag432
ag134
ag187
ag188
ag189
asg503
(lp2115
g426
ag427
ag411
ag384
ag395
ag396
ag961
ag1746
ag504
ag505
ag506
ag507
ag133
ag193
asg1692
(lp2116
g857
ag869
ag884
ag931
ag1227
ag519
ag156
ag1768
asg869
(lp2117
g884
ag931
ag1227
ag519
ag51
ag53
asg857
(lp2118
g869
ag884
ag931
ag1227
ag519
ag1049
ag858
asg236
(lp2119
g209
ag1772
ag858
asg814
(lp2120
g1232
ag1888
ag733
ag734
ag1766
ag850
ag878
ag1906
ag835
ag815
ag816
ag817
ag818
ag239
ag240
ag819
ag310
ag820
ag821
ag822
ag823
asg675
(lp2121
g676
asg708
(lp2122
g573
ag852
ag829
ag709
ag38
ag224
ag234
ag235
ag236
asg1095
(lp2123
g1956
aS'EMU'
p2124
ag1096
ag765
ag766
ag801
ag802
ag803
ag1443
asg1957
(lp2125
sS'AES'
p2126
(lp2127
g1841
ag1218
ag724
ag863
ag864
ag865
ag866
ag867
ag868
ag869
asS'AER'
p2128
(lp2129
g2126
aS'AIR'
p2130
ag723
ag848
ag849
ag281
ag850
ag705
ag851
ag852
ag853
ag854
ag855
ag856
ag857
ag858
asg572
(lp2131
g580
ag1112
ag879
ag880
ag398
ag984
ag843
ag573
ag574
ag575
ag576
ag39
ag194
ag225
ag205
ag206
ag207
ag208
ag209
asg286
(lp2132
g95
ag1242
ag1470
ag1500
aS'HOX'
p2133
ag1562
ag287
ag288
ag1326
ag1328
ag1329
ag62
ag1330
ag1331
asg1010
(lp2134
g1788
asg1956
(lp2135
g2124
asg203
(lp2136
g1529
ag204
ag221
asg199
(lp2137
g200
ag212
ag1529
ag217
ag1772
asg1102
(lp2138
S'DRY'
p2139
ag1541
ag1159
ag1277
ag181
ag418
asg924
(lp2140
g925
ag710
ag712
ag713
ag714
ag715
asg2124
(lp2141
g1869
ag1866
asg946
(lp2142
g971
ag212
ag180
ag1046
asg752
(lp2143
g740
ag1768
ag858
asg313
(lp2144
g160
ag193
ag187
ag144
ag146
ag56
ag314
ag315
ag316
ag465
asg1132
(lp2145
g924
ag1133
ag1134
ag1054
ag914
asg1666
(lp2146
g1102
ag1871
ag1620
ag478
ag416
asg1630
(lp2147
g250
ag464
ag378
ag1252
ag432
ag490
ag491
ag389
ag400
ag424
aS'ROC'
p2148
ag128
ag139
ag140
asg863
(lp2149
g876
ag834
ag965
ag1140
ag756
ag864
ag865
ag866
ag867
ag868
ag869
asg849
(lp2150
g863
ag876
ag834
ag965
ag1136
ag1137
ag937
ag755
ag281
ag850
ag705
ag851
ag852
ag853
ag854
ag855
ag856
ag857
ag858
asg1337
(lp2151
g1106
ag1553
ag1171
ag1338
ag1339
ag530
ag561
ag580
ag581
ag582
ag40
ag198
ag216
ag583
asg374
(lp2152
g410
ag828
ag842
ag605
ag606
ag901
ag716
ag636
ag321
ag436
asg761
(lp2153
g374
ag410
ag828
ag842
ag659
ag762
ag69
ag170
ag517
asg876
(lp2154
g834
ag965
ag390
ag392
ag393
ag282
ag877
ag878
ag678
ag570
ag879
ag880
ag881
ag246
ag882
ag883
ag219
ag884
asg847
(lp2155
g862
ag875
ag832
ag1176
ag368
ag369
ag755
ag828
ag706
ag829
ag257
ag17
ag233
ag262
asg862
(lp2156
g875
ag832
ag756
ag825
ag259
ag640
ag826
ag53
asg834
(lp2157
g965
ag1735
ag757
ag758
ag285
ag835
ag836
ag837
ag838
asg410
(lp2158
g828
ag842
ag907
ag908
ag719
ag639
ag184
ag147
ag909
ag143
asg578
(lp2159
g579
ag1210
ag926
ag929
ag930
ag931
asg771
(lp2160
g772
ag773
ag774
ag746
ag775
ag721
ag748
ag723
ag724
ag725
ag726
ag1397
ag1398
ag1399
ag1400
aS'FED'
p2161
ag2073
aS'GED'
p2162
ag1235
ag1237
ag594
ag1238
ag1239
ag237
ag1146
ag252
ag253
ag254
ag255
ag256
asg376
(lp2163
g506
ag430
ag386
ag387
ag398
ag422
ag1001
ag377
ag378
ag132
ag160
ag161
ag162
asg828
(lp2164
g842
ag706
ag829
ag257
ag17
ag233
ag262
asg864
(lp2165
g678
ag1508
ag1800
ag695
ag696
ag1770
ag836
ag1467
aS'LYS'
p2166
ag865
ag866
ag867
ag868
ag869
asg730
(lp2167
g847
ag862
ag875
ag832
ag793
ag509
ag754
ag892
ag410
ag907
ag908
ag719
ag639
ag184
ag147
ag909
ag143
asg1821
(lp2168
sg1724
(lp2169
g1821
asg1222
(lp2170
g730
ag847
ag862
ag875
ag832
ag1223
ag792
ag1224
ag497
ag498
ag805
ag534
ag535
ag700
ag637
ag638
ag186
ag344
ag806
asg1414
(lp2171
g1399
ag1400
ag1886
ag1222
ag730
ag847
ag862
ag875
ag832
ag1441
ag787
ag447
ag797
ag798
ag799
ag633
ag586
ag337
asg1468
(lp2172
g57
ag1604
ag51
asg139
(lp2173
g172
ag313
ag160
ag193
ag187
ag144
ag146
ag56
ag140
asg964
(lp2174
g849
ag863
ag876
ag834
ag965
ag456
ag489
aS'LEO'
p2175
ag988
ag992
ag993
asg1886
(lp2176
g1222
ag730
ag847
ag862
ag875
ag832
ag791
ag889
ag374
ag605
ag606
ag901
ag716
ag636
ag321
ag436
asg1399
(lp2177
g1886
ag1222
ag730
ag847
ag862
ag875
ag832
ag1464
ag789
ag485
ag470
ag760
ag761
ag659
ag762
ag69
ag170
ag517
asg751
(lp2178
g1017
ag732
ag964
ag849
ag863
ag876
ag834
ag965
ag453
ag501
ag502
ag702
ag244
ag752
asg1472
(lp2179
g1507
ag1499
ag420
ag1540
ag1473
ag392
ag1470
ag1212
ag679
ag680
ag571
ag984
ag1538
ag65
ag55
ag201
ag220
ag601
asg612
(lp2180
g991
ag126
ag613
ag614
ag615
ag616
ag354
ag355
ag617
asg1499
(lp2181
g420
ag1540
ag1500
ag1209
ag697
ag579
ag986
ag928
ag66
ag1501
ag971
ag1302
ag1032
ag1388
asg381
(lp2182
g366
ag367
ag1472
ag1507
ag1499
ag420
ag1540
ag1242
ag1187
ag1190
ag1191
ag1192
ag1193
ag153
ag226
ag1031
asg147
(lp2183
g227
ag233
ag203
ag1529
ag909
ag143
asg366
(lp2184
g1472
ag1507
ag1499
ag420
ag1540
ag368
ag369
ag1136
ag1137
ag1138
ag899
ag983
ag231
ag232
ag1049
asg28
(lp2185
g29
ag30
ag31
ag32
ag33
ag34
ag35
ag36
ag37
ag38
ag39
ag40
ag41
ag42
ag299
asg420
(lp2186
g1540
ag2133
ag1480
ag1944
ag67
ag212
ag213
asg221
(lp2187
sg695
(lp2188
g1770
ag836
ag697
ag578
ag1210
ag926
ag929
ag930
ag931
asg1793
(lp2189
g1314
ag125
asg1540
(lp2190
g1541
ag1735
ag1562
ag1634
ag1481
ag1698
ag987
ag1035
ag68
ag712
ag180
ag1033
ag1036
asg1788
(lp2191
sg484
(lp2192
g487
ag1578
ag93
aS'FOO'
p2193
ag381
ag366
ag367
ag1472
ag1507
ag1499
ag420
ag1540
ag485
ag468
ag469
ag2076
ag595
ag658
ag999
ag1002
ag58
ag251
ag70
ag71
ag72
ag73
ag74
asg487
(lp2194
g1578
ag93
ag2193
ag381
ag366
ag367
ag1472
ag1507
ag1499
ag420
ag1540
ag1092
ag1120
ag1121
ag655
ag1122
ag60
ag742
ag314
ag1123
ag1124
ag1125
asg26
(lp2195
g27
ag28
ag29
ag30
ag31
ag32
ag33
ag34
ag35
ag36
ag37
ag38
ag39
ag40
ag41
ag42
ag1557
ag516
ag685
asg446
(lp2196
g484
ag487
ag1578
ag93
ag2193
ag381
ag366
ag367
ag1472
ag1507
ag1499
ag420
ag1540
ag447
ag482
ag1993
ag269
ag270
ag1362
ag621
ag1590
ag1008
ag1013
ag1014
ag1015
ag585
ag1016
asg1212
(lp2197
g1209
ag1634
ag842
ag679
ag680
ag571
ag984
ag1538
ag65
ag55
ag201
ag220
ag601
asg93
(lp2198
g2193
ag381
ag366
ag367
ag1472
ag1507
ag1499
ag420
ag1540
ag509
ag94
ag95
ag96
ag97
ag98
ag99
ag100
ag101
ag102
ag64
ag103
ag104
ag105
ag106
ag107
asg2193
(lp2199
g381
ag366
ag367
ag1472
ag1507
ag1499
ag420
ag1540
ag1871
ag489
ag1479
ag991
ag356
ag1030
ag1788
asg1558
(lp2200
g191
ag192
ag103
ag104
ag153
ag55
ag1045
ag1559
ag1501
ag712
ag917
ag1898
asS'AND'
p2201
(lp2202
S'ANI'
p2203
ag1258
ag1259
ag664
ag167
ag2055
ag1776
ag1040
asg1544
(lp2204
g123
ag125
ag1156
ag1160
asg1698
(lp2205
g987
ag1035
ag68
ag712
ag180
ag1033
ag1036
asg1053
(lp2206
g1677
ag1054
asg115
(lp2207
g2201
ag2203
ag1258
ag1259
ag664
ag167
ag117
ag118
ag119
ag120
ag121
ag122
ag1024
ag1025
ag1485
asg452
(lp2208
g453
ag454
ag455
ag456
ag382
ag390
ag1984
ag266
ag375
ag376
ag377
ag378
ag132
ag160
ag161
ag162
asg899
(lp2209
g571
ag565
ag579
ag1698
ag983
ag231
ag232
ag1049
asg1258
(lp2210
g664
ag167
ag1260
ag1261
ag1026
asg1191
(lp2211
g899
ag571
ag565
ag579
ag1698
ag1192
ag1193
ag153
ag226
ag1031
asg579
(lp2212
g1698
ag986
ag928
ag66
ag1501
ag971
ag1302
ag1032
ag1388
asg2203
(lp2213
g1258
ag1259
ag664
ag167
ag1814
asg565
(lp2214
g579
ag1698
ag566
ag985
ag1045
ag946
ag1046
asg571
(lp2215
g565
ag579
ag1698
ag984
ag1538
ag65
ag55
ag201
ag220
ag601
asg664
(lp2216
g167
ag665
ag666
ag667
ag668
asg1711
(lp2217
g1695
ag1315
ag513
ag1317
asg1328
(lp2218
g99
ag100
ag991
ag1191
ag899
ag571
ag565
ag579
ag1698
ag1329
ag62
ag1330
ag1331
asg1578
(lp2219
g93
ag2193
ag381
ag366
ag367
ag1472
ag1507
ag1499
ag420
ag1540
ag1984
ag1987
ag373
ag604
ag1531
ag1001
ag61
ag159
ag320
ag435
ag1005
asg991
(lp2220
g1191
ag899
ag571
ag565
ag579
ag1698
ag356
ag1030
ag1788
asg99
(lp2221
g991
ag1191
ag899
ag571
ag565
ag579
ag1698
ag907
ag101
ag102
ag64
ag103
ag104
ag105
ag106
ag107
asg1634
(lp2222
g1481
ag1698
ag987
ag1035
ag68
ag712
ag180
ag1033
ag1036
asg1590
(lp2223
g658
ag655
ag1531
ag1328
ag99
ag100
ag991
ag1191
ag899
ag571
ag565
ag579
ag1698
ag1008
ag1013
ag1014
ag1015
ag585
ag1016
asg1766
(lp2224
g850
ag878
ag1906
ag835
ag384
ag1187
ag1639
ag1640
ag1767
ag245
ag1692
ag1768
asg1531
(lp2225
g1328
ag99
ag100
ag991
ag1191
ag899
ag571
ag565
ag579
ag1698
ag901
ag1001
ag61
ag159
ag320
ag435
ag1005
asg167
(lp2226
g168
ag710
asg1677
(lp2227
g260
ag202
ag871
asg658
(lp2228
g655
ag1531
ag1328
ag99
ag100
ag991
ag1191
ag899
ag571
ag565
ag579
ag1698
ag659
ag999
ag1002
ag58
ag251
ag70
ag71
ag72
ag73
ag74
asg1866
(lp2229
g480
ag1669
asg952
(lp2230
g953
ag954
ag955
ag956
ag957
ag958
ag959
ag1199
ag1050
ag1057
ag381
ag1242
ag1187
ag1190
ag1191
ag1192
ag1193
ag153
ag226
ag1031
asg954
(lp2231
g955
ag956
ag957
ag958
ag959
ag1060
ag1140
ag1141
ag1142
asg953
(lp2232
g954
ag955
ag956
ag957
ag958
ag959
ag1176
ag1058
ag1059
ag366
ag367
ag1136
ag1137
ag1138
ag899
ag983
ag231
ag232
ag1049
asg1918
(lp2233
g1238
ag817
ag1233
ag290
ag992
ag1639
ag1640
ag879
ag880
ag1210
ag272
ag1008
ag798
ag1145
ag1680
asg955
(lp2234
g956
ag957
ag958
ag959
ag1245
ag1061
ag1062
ag1472
ag392
ag1470
ag1212
ag679
ag680
ag571
ag984
ag1538
ag65
ag55
ag201
ag220
ag601
asg956
(lp2235
g957
ag958
ag959
ag1063
ag1499
ag1500
ag1209
ag697
ag579
ag986
ag928
ag66
ag1501
ag971
ag1302
ag1032
ag1388
asg1296
(lp2236
g1275
ag1267
ag1369
ag977
ag1370
ag767
ag994
ag46
ag1297
asg881
(lp2237
g926
ag399
ag1538
ag1677
ag260
ag246
ag882
ag883
ag219
ag884
asg957
(lp2238
g958
ag959
ag420
ag2133
ag1480
ag1944
ag67
ag212
ag213
asg1267
(lp2239
g1268
asg806
(lp2240
sg1767
(lp2241
g853
ag854
ag867
ag881
ag926
ag388
ag1192
ag1193
ag720
ag245
ag1692
ag1768
asg1275
(lp2242
g1267
ag1037
ag1039
asg853
(lp2243
g867
ag881
ag926
ag371
ag257
ag261
ag855
ag856
ag857
ag858
asg867
(lp2244
g881
ag926
ag259
ag868
ag869
asg1443
(lp2245
g1864
ag1866
ag1318
ag1444
ag1445
asg736
(lp2246
g1767
ag853
ag854
ag867
ag881
ag926
ag415
ag102
ag719
ag737
ag347
ag738
ag739
ag740
asg1421
(lp2247
g763
ag1370
ag1653
ag1654
asg1754
(lp2248
g1451
ag948
ag950
ag951
ag952
ag953
ag954
ag955
ag956
ag957
ag958
ag959
ag1755
ag1117
ag487
ag1092
ag1120
ag1121
ag655
ag1122
ag60
ag742
ag314
ag1123
ag1124
ag1125
asg1463
(lp2249
g1754
ag1451
ag948
ag950
ag951
ag952
ag953
ag954
ag955
ag956
ag957
ag958
ag959
ag1464
aS'DOD'
p2250
ag484
ag468
ag469
ag2076
ag595
ag658
ag999
ag1002
ag58
ag251
ag70
ag71
ag72
ag73
ag74
asg1451
(lp2251
g948
ag950
ag951
ag952
ag953
ag954
ag955
ag956
ag957
ag958
ag959
ag1119
ag1578
ag1984
ag1987
ag373
ag604
ag1531
ag1001
ag61
ag159
ag320
ag435
ag1005
asg1239
(lp2252
g818
ag1889
ag1890
ag736
ag1767
ag853
ag854
ag867
ag881
ag926
ag1002
ag762
ag237
ag1146
ag252
ag253
ag254
ag255
ag256
asg818
(lp2253
g1889
ag1890
ag736
ag1767
ag853
ag854
ag867
ag881
ag926
ag463
ag1122
ag239
ag240
ag819
ag310
ag820
ag821
ag822
ag823
asg1023
(lp2254
g1132
asg1889
(lp2255
g736
ag1767
ag853
ag854
ag867
ag881
ag926
ag377
ag716
ag242
ag1151
ag319
asg782
(lp2256
g1239
ag818
ag1889
ag1890
ag736
ag1767
ag853
ag854
ag867
ag881
ag926
ag1495
ag1496
ag1009
ag1728
ag1704
ag783
ag43
ag330
ag784
ag785
ag786
asg951
(lp2257
g952
ag953
ag954
ag955
ag956
ag957
ag958
ag959
ag1666
ag2193
ag489
ag1479
ag991
ag356
ag1030
ag1788
asg950
(lp2258
g951
ag952
ag953
ag954
ag955
ag956
ag957
ag958
ag959
ag1055
ag1068
ag90
ag93
ag94
ag95
ag96
ag97
ag98
ag99
ag100
ag101
ag102
ag64
ag103
ag104
ag105
ag106
ag107
asS'OLD'
p2259
(lp2260
g1284
ag1957
ag2057
asg1284
(lp2261
g1957
ag1483
ag1711
ag1315
ag513
ag1317
ag1285
asg96
(lp2262
g97
ag98
ag99
ag100
ag101
ag102
ag64
ag103
ag104
ag105
ag106
ag107
asg9
(lp2263
sg42
(lp2264
g837
ag922
ag924
ag925
ag710
ag712
ag713
ag714
ag715
ag200
ag218
asg1494
(lp2265
g994
ag996
ag49
ag335
asg436
(lp2266
g806
asg49
(lp2267
g335
asg41
(lp2268
g42
ag1775
ag16
ag199
ag217
ag1772
asg1097
(lp2269
g1395
ag1098
asg476
(lp2270
g477
ag478
ag479
ag480
asg1120
(lp2271
g373
ag97
ag1141
ag1212
ag1209
ag1634
ag655
ag1122
ag60
ag742
ag314
ag1123
ag1124
ag1125
asg282
(lp2272
g283
ag284
ag285
ag394
ag1470
ag841
ag877
ag878
ag678
ag570
ag879
ag880
ag881
ag246
ag882
ag883
ag219
ag884
asg1695
(lp2273
g1158
ag844
asg283
(lp2274
g284
ag285
ag1500
ag1207
ag695
ag696
ag578
ag1210
ag926
ag929
ag930
ag931
asg280
(lp2275
g281
ag282
ag283
ag284
ag285
ag383
ag1242
ag893
ag920
ag1766
ag1639
ag1640
ag1767
ag245
ag1692
ag1768
asg281
(lp2276
g282
ag283
ag284
ag285
ag850
ag705
ag851
ag852
ag853
ag854
ag855
ag856
ag857
ag858
asg516
(lp2277
g350
ag228
ag234
ag494
ag206
ag207
ag216
ag217
ag218
ag685
asg324
(lp2278
g516
ag350
ag228
ag234
ag494
ag206
ag207
ag216
ag217
ag218
ag161
ag1005
ag325
asg515
(lp2279
g324
ag516
ag350
ag228
ag234
ag494
ag206
ag207
ag216
ag217
ag218
asg317
(lp2280
g515
ag324
ag516
ag350
ag228
ag234
ag494
ag206
ag207
ag216
ag217
ag218
ag821
ag1124
ag936
asg1527
(lp2281
g1646
aS'ODE'
p2282
ag1284
ag1483
ag1711
ag1315
ag513
ag1317
asg631
(lp2283
g306
ag317
ag515
ag324
ag516
ag350
ag228
ag234
ag494
ag206
ag207
ag216
ag217
ag218
ag632
asg338
(lp2284
g631
ag306
ag317
ag515
ag324
ag516
ag350
ag228
ag234
ag494
ag206
ag207
ag216
ag217
ag218
ag1680
ag1016
asg1475
(lp2285
g360
ag566
ag480
asS'MYA'
p2286
(lp2287
g1704
asg218
(lp2288
g838
ag182
ag1033
ag418
asg217
(lp2289
g218
ag1772
asg216
(lp2290
g217
ag218
ag1032
ag583
asg278
(lp2291
g279
ag280
ag281
ag282
ag283
ag284
ag285
ag499
ag805
ag1019
ag699
ag1020
asg279
(lp2292
g280
ag281
ag282
ag283
ag284
ag285
ag510
ag95
ag892
ag733
ag734
ag544
ag735
ag736
ag737
ag347
ag738
ag739
ag740
asg978
(lp2293
g1475
ag1363
ag980
ag333
ag981
asg494
(lp2294
g206
ag207
ag216
ag217
ag218
ag868
ag1468
ag495
asg234
(lp2295
g494
ag206
ag207
ag216
ag217
ag218
ag856
ag18
ag262
ag235
ag236
asg228
(lp2296
g234
ag494
ag206
ag207
ag216
ag217
ag218
ag1031
ag921
ag229
asg1772
(lp2297
sg639
(lp2298
g640
ag600
ag211
ag184
ag147
ag909
ag143
asg1353
(lp2299
g846
ag861
ag874
ag1335
ag831
ag952
ag1057
ag381
ag1242
ag1187
ag1190
ag1191
ag1192
ag1193
ag153
ag226
ag1031
asg637
(lp2300
g639
ag640
ag600
ag211
ag186
ag344
ag806
asg866
(lp2301
g1484
ag867
ag868
ag869
asg852
(lp2302
g866
ag829
ag853
ag854
ag855
ag856
ag857
ag858
asg1148
(lp2303
g633
ag69
ag635
ag636
ag637
ag638
ag639
ag640
ag600
ag211
ag334
asg636
(lp2304
g637
ag638
ag639
ag640
ag600
ag211
ag321
ag436
asg1310
(lp2305
g1035
ag1277
ag925
asg635
(lp2306
g636
ag637
ag638
ag639
ag640
ag600
ag211
ag935
ag743
ag744
ag315
asg1487
(lp2307
g1330
ag1488
ag915
ag1489
ag1573
asg211
(lp2308
g1529
asg103
(lp2309
g153
ag55
ag1045
ag1559
ag1501
ag712
ag184
ag105
ag106
ag107
asg640
(lp2310
g600
ag211
ag826
ag53
asg1114
(lp2311
g68
ag42
ag200
ag218
asg600
(lp2312
g211
ag203
ag221
asg621
(lp2313
g595
ag1477
ag604
ag1479
ag1190
ag679
ag680
ag1476
ag697
ag1480
ag1481
ag1590
ag1008
ag1013
ag1014
ag1015
ag585
ag1016
asg1715
(lp2314
g1716
ag1717
ag1718
ag1719
ag1720
ag1067
ag792
ag454
ag499
ag267
ag426
ag427
ag428
ag429
ag430
ag431
ag432
ag134
ag187
ag188
ag189
asg1716
(lp2315
g1717
ag1718
ag1719
ag1720
ag1055
ag1068
ag793
ag444
ag445
ag455
ag510
ag268
ag411
ag412
ag413
ag414
ag415
ag135
ag144
ag148
ag149
ag150
ag151
asg1364
(lp2316
g621
ag595
ag1477
ag604
ag1479
ag1190
ag679
ag680
ag1476
ag697
ag1480
ag1481
ag1006
ag1009
ag332
ag1010
ag1011
asg343
(lp2317
g105
ag356
ag226
ag231
ag232
ag201
ag946
ag971
ag212
ag180
ag344
ag1071
asS'AIX'
p2318
(lp2319
S'ARX'
p2320
ag365
ag421
ag422
ag423
ag424
ag16
asg595
(lp2321
g1477
ag604
ag1479
ag1190
ag679
ag680
ag1476
ag697
ag1480
ag1481
ag658
ag999
ag1002
ag58
ag251
ag70
ag71
ag72
ag73
ag74
asg1318
(lp2322
g474
ag476
ag477
ag478
ag479
ag480
ag1444
ag1445
asg1954
(lp2323
g1712
ag1714
ag1715
ag1716
ag1717
ag1718
ag1719
ag1720
ag2250
ag789
ag441
ag466
ag471
ag472
ag473
ag250
ag130
ag172
ag173
ag174
asg661
(lp2324
g2318
ag662
ag663
ag664
ag665
ag666
ag667
ag668
ag873
ag1244
ag1719
ag364
ag390
ag394
ag395
ag396
ag397
ag398
ag399
ag400
ag15
ag56
ag57
asg1359
(lp2325
sg1714
(lp2326
g1715
ag1716
ag1717
ag1718
ag1719
ag1720
ag1119
ag791
ag443
ag452
ag266
ag375
ag376
ag377
ag378
ag132
ag160
ag161
ag162
asg1479
(lp2327
g1190
ag679
ag680
ag1476
ag697
ag1480
ag1481
ag1743
ag1840
ag991
ag356
ag1030
ag1788
asg1959
(lp2328
g1954
ag1712
ag1714
ag1715
ag1716
ag1717
ag1718
ag1719
ag1720
aS'DOB'
p2329
aS'DOB'
p2330
ag787
ag439
ag448
ag449
ag264
ag271
ag272
ag273
ag274
ag275
asg2130
(lp2331
g661
ag2318
ag362
ag370
ag371
ag11
ag137
ag18
asg1936
(lp2332
g2130
ag661
ag2318
ag1937
ag1217
ag1447
ag1715
ag454
ag499
ag267
ag426
ag427
ag428
ag429
ag430
ag431
ag432
ag134
ag187
ag188
ag189
asg1940
(lp2333
g1936
ag2130
ag661
ag2318
ag1263
ag1265
ag453
ag503
ag504
ag505
ag506
ag507
ag133
ag193
asg1190
(lp2334
g679
ag680
ag1476
ag697
ag1480
ag1481
ag1191
ag1192
ag1193
ag153
ag226
ag1031
asg697
(lp2335
g1480
ag1481
ag579
ag986
ag928
ag66
ag1501
ag971
ag1302
ag1032
ag1388
asg679
(lp2336
g1476
ag697
ag1480
ag1481
ag681
ag571
ag984
ag1538
ag65
ag55
ag201
ag220
ag601
asg1476
(lp2337
g697
ag1480
ag1481
ag565
ag985
ag1045
ag946
ag1046
asg1719
(lp2338
g1720
ag1061
ag1062
ag364
ag390
ag394
ag395
ag396
ag397
ag398
ag399
ag400
ag15
ag56
ag57
asS'AID'
p2339
(lp2340
g1940
ag1936
ag2130
ag661
ag2318
ag2201
ag2055
ag1397
ag1462
ag1954
ag441
ag466
ag471
ag472
ag473
ag250
ag130
ag172
ag173
ag174
asg1480
(lp2341
g1481
ag1744
ag1944
ag67
ag212
ag213
asg1481
(lp2342
g1698
ag987
ag1035
ag68
ag712
ag180
ag1033
ag1036
asg1717
(lp2343
g1718
ag1719
ag1720
ag1057
ag795
ag379
ag382
ag383
ag384
ag385
ag386
ag387
ag388
ag389
ag136
ag146
ag155
ag156
ag157
asg533
(lp2344
g1581
asg1718
(lp2345
g1719
ag1720
ag1060
ag1091
ag1467
ag13
ag14
ag493
ag1468
ag51
asg2042
(lp2346
g2043
asg138
(lp2347
g70
ag742
ag159
ag1557
ag1558
ag191
ag192
ag103
ag104
ag153
ag55
ag1045
ag1559
ag1501
ag712
asg2043
(lp2348
sg742
(lp2349
g159
ag1557
ag1558
ag191
ag192
ag103
ag104
ag153
ag55
ag1045
ag1559
ag1501
ag712
ag743
ag744
ag745
ag314
ag1123
ag1124
ag1125
asg70
(lp2350
g742
ag159
ag1557
ag1558
ag191
ag192
ag103
ag104
ag153
ag55
ag1045
ag1559
ag1501
ag712
ag170
ag171
ag71
ag72
ag73
ag74
asg1106
(lp2351
g1553
ag834
ag1735
ag757
ag758
ag1107
ag1108
ag1109
ag1110
ag1111
ag532
ag563
ag564
ag1112
ag1113
ag1114
ag1115
ag42
ag200
ag218
asg1317
(lp2352
g1820
ag2042
ag2043
asg2057
(lp2353
g1317
ag1820
ag2042
ag2043
asg2039
(lp2354
g1337
ag1106
ag1553
aS'GNU'
p2355
ag1170
ag559
ag567
ag196
ag403
asg1248
(lp2356
g2039
ag1337
ag1106
ag1553
ag876
ag390
ag392
ag393
ag1169
ag1249
ag1250
ag529
ag568
ag650
ag572
ag573
ag574
ag575
ag576
ag39
ag194
ag225
ag205
ag206
ag207
ag208
ag209
asg1349
(lp2357
g1248
ag2039
ag1337
ag1106
ag1553
ag863
ag1140
ag756
ag528
ag649
ag1350
ag402
ag494
ag495
asg1180
(lp2358
g1349
ag1248
ag2039
ag1337
ag1106
ag1553
ag849
ag1136
ag1137
ag937
ag755
ag1181
ag526
ag527
ag647
ag648
ag707
ag708
ag709
ag38
ag224
ag234
ag235
ag236
asg1247
(lp2359
g1104
ag1105
ag689
ag364
ag1472
ag1473
ag1248
ag1169
ag1249
ag1250
ag529
ag568
ag650
ag572
ag573
ag574
ag575
ag576
ag39
ag194
ag225
ag205
ag206
ag207
ag208
ag209
asg1201
(lp2360
g1180
ag1349
ag1248
ag2039
ag1337
ag1106
ag1553
ag382
ag407
ag408
ag1168
ag1202
ag1203
ag525
ag646
ag1204
ag1205
ag1206
ag37
ag222
ag228
ag229
asg1085
(lp2361
g1201
ag1180
ag1349
ag1248
ag2039
ag1337
ag1106
ag1553
ag732
ag455
ag94
ag754
ag176
ag1086
ag1087
ag1088
ag1089
ag523
ag545
ag546
ag547
ag548
ag549
ag550
ag551
ag34
ag35
ag303
ag348
ag349
ag350
ag351
ag352
asg1428
(lp2362
g1085
ag1201
ag1180
ag1349
ag1248
ag2039
ag1337
ag1106
ag1553
ag1017
ag454
ag497
ag498
ag437
ag1429
ag1430
ag1431
ag521
ag536
ag537
ag538
ag539
ag540
ag541
ag542
ag32
ag33
ag302
ag345
asg1435
(lp2363
g1428
ag1085
ag1201
ag1180
ag1349
ag1248
ag2039
ag1337
ag1106
ag1553
ag751
ag453
ag501
ag502
ag1436
ag644
ag703
ag30
ag31
ag300
ag301
ag341
asg1083
(lp2364
g1179
ag1247
ag1104
ag1105
ag688
ag444
ag445
ag93
ag509
ag1085
ag1086
ag1087
ag1088
ag1089
ag523
ag545
ag546
ag547
ag548
ag549
ag550
ag551
ag34
ag35
ag303
ag348
ag349
ag350
ag351
ag352
asg55
(lp2365
g1045
ag1559
ag1501
ag712
ag201
ag220
ag601
asg1501
(lp2366
g712
ag971
ag1302
ag1032
ag1388
asg1427
(lp2367
g1083
ag1084
ag1179
ag1247
ag1104
ag1105
ag1224
ag1428
ag1429
ag1430
ag1431
ag521
ag536
ag537
ag538
ag539
ag540
ag541
ag542
ag32
ag33
ag302
ag345
asg1454
(lp2368
g2037
ag1435
ag1428
ag1085
ag1201
ag1180
ag1349
ag1248
ag2039
ag1337
ag1106
ag1553
ag452
ag1984
ag1455
ag1456
ag589
ag607
ag608
ag609
ag25
ag296
ag323
ag324
ag325
asg1404
(lp2369
g1454
ag2037
ag1435
ag1428
ag1085
ag1201
ag1180
ag1349
ag1248
ag2039
ag1337
ag1106
ag1553
ag2073
ag2162
ag466
ag468
ag469
ag470
ag1406
ag587
ag596
ag597
ag598
ag24
ag293
ag329
ag306
ag307
ag308
asg1417
(lp2370
g1404
ag1405
ag1454
ag2037
ag1435
ag1428
ag1085
ag1201
ag1180
ag1349
ag1248
ag2039
ag1337
ag1106
ag1553
ag448
ag449
ag482
ag1418
ag618
ag622
ag623
ag624
ag625
ag21
ag327
ag328
ag338
asg1403
(lp2371
g1409
ag1453
ag1427
ag1083
ag1084
ag1179
ag1247
ag1104
ag1105
ag2161
ag441
ag484
ag485
ag1404
ag1405
ag1406
ag587
ag596
ag597
ag598
ag24
ag293
ag329
ag306
ag307
ag308
asg1409
(lp2372
g1453
ag1427
ag1083
ag1084
ag1179
ag1247
ag1104
ag1105
ag811
ag442
ag487
ag642
ag656
ag295
ag317
asg107
(lp2373
g1049
ag601
ag1046
ag1388
ag213
ag1036
ag143
asg1071
(lp2374
g107
ag1049
ag601
ag1046
ag1388
ag213
ag1036
asg1653
(lp2375
g1445
ag1669
ag653
asg1898
(lp2376
g1071
ag107
ag1049
ag601
ag1046
ag1388
ag213
ag1036
asg1331
(lp2377
g1898
ag1071
ag107
ag1049
ag601
ag1046
ag1388
ag213
ag1036
asg1445
(lp2378
g1669
asg2148
(lp2379
g58
ag251
ag60
ag61
ag62
ag63
ag64
ag65
ag66
ag67
ag68
ag138
asg1125
(lp2380
g1331
ag1898
ag1071
ag107
ag1049
ag601
ag1046
ag1388
ag213
ag1036
asg990
(lp2381
g578
ag247
asg289
(lp2382
g940
ag544
ag2175
ag705
ag864
ag678
ag1508
ag1800
ag695
ag696
ag1770
ag836
ag913
ag290
ag291
ag292
asg984
(lp2383
g985
ag986
ag987
ag843
ag1538
ag65
ag55
ag201
ag220
ag601
asg357
(lp2384
sg1039
(lp2385
sg1036
(lp2386
sg213
(lp2387
g1036
asg1388
(lp2388
g213
ag1036
asg977
(lp2389
g1395
ag1039
ag1370
ag767
ag994
ag978
ag979
ag980
ag333
ag981
asg1046
(lp2390
g1388
ag213
ag1036
asg601
(lp2391
g1046
ag1388
ag213
ag1036
asg1395
(lp2392
g1039
ag1315
ag1318
asg176
(lp2393
g408
ag177
asg127
(lp2394
sg986
(lp2395
g987
ag928
ag66
ag1501
ag971
ag1302
ag1032
ag1388
asg666
(lp2396
g671
ag2320
ag168
ag668
ag1158
asg671
(lp2397
g2320
ag168
ag672
ag1475
ag566
ag480
asg1522
(lp2398
g1288
asg162
(lp2399
g157
asg2320
(lp2400
g168
asg168
(lp2401
g1102
ag2139
ag1541
ag1159
ag1277
ag181
ag418
asg118
(lp2402
S'ARC'
p2403
ag81
ag1272
ag1937
ag1260
ag7
ag666
ag667
ag671
ag2320
ag168
ag119
ag120
ag121
ag122
ag777
ag1419
ag1422
ag975
ag977
ag978
ag979
ag980
ag333
ag981
asg2403
(lp2404
g81
ag1272
ag1937
ag1260
ag7
ag666
ag667
ag671
ag2320
ag168
ag1320
asg81
(lp2405
g1272
ag1937
ag1260
ag7
ag666
ag667
ag671
ag2320
ag168
ag82
ag83
ag84
ag85
ag86
ag87
ag88
ag1096
ag1395
ag1315
ag1318
asg1863
(lp2406
g908
ag843
ag718
asg928
(lp2407
g1944
ag1035
ag66
ag1501
ag971
ag1302
ag1032
ag1388
asg1272
(lp2408
g1937
ag1260
ag7
ag666
ag667
ag671
ag2320
ag168
ag1273
ag1215
ag1216
ag1039
asg332
(lp2409
g71
ag72
ag314
ag320
ag1330
ag340
ag343
ag105
ag356
ag226
ag231
ag232
ag201
ag946
ag971
ag212
ag180
ag333
ag334
ag335
ag1010
ag1011
asg1937
(lp2410
g1260
ag7
ag666
ag667
ag671
ag2320
ag168
ag1217
asg1260
(lp2411
g7
ag666
ag667
ag671
ag2320
ag168
ag1261
ag477
asg7
(lp2412
g666
ag667
ag671
ag2320
ag168
ag8
ag9
ag1666
ag1871
ag1620
ag478
ag416
asg2139
(lp2413
g1541
ag1159
ag1277
ag181
ag418
asg831
(lp2414
g832
ag958
ag1540
ag1735
ag1562
ag1634
ag1481
ag1698
ag987
ag1035
ag68
ag712
ag180
ag1033
ag1036
asg1385
(lp2415
g623
ag656
ag608
ag941
ag537
ag546
ag547
ag1204
ag707
ag572
ag580
ag1112
ag781
ag1006
ag19
ag50
asg608
(lp2416
g941
ag537
ag546
ag547
ag1204
ag707
ag572
ag580
ag1112
ag376
ag1001
ag609
ag25
ag296
ag323
ag324
ag325
asg656
(lp2417
g608
ag941
ag537
ag546
ag547
ag1204
ag707
ag572
ag580
ag1112
ag817
ag933
ag295
ag317
asg56
(lp2418
g201
ag202
ag203
ag204
ag57
asg941
(lp2419
g537
ag546
ag547
ag1204
ag707
ag572
ag580
ag1112
ag942
ag29
ag943
ag944
asg538
(lp2420
g708
ag573
aS'OHM'
p2421
ag1957
ag539
ag540
ag541
ag542
ag32
ag33
ag302
ag345
asg861
(lp2422
g874
ag1335
ag831
ag862
ag954
ag1060
ag1140
ag1141
ag1142
asg546
(lp2423
g1204
ag707
ag572
ag580
ag1112
ag101
ag908
ag548
ag549
ag550
ag551
ag34
ag35
ag303
ag348
ag349
ag350
ag351
ag352
asg248
(lp2424
g424
ag67
ag211
ag1775
ag1196
ag1227
asg537
(lp2425
g546
ag547
ag1204
ag707
ag572
ag580
ag1112
ag430
ag538
ag539
ag540
ag541
ag542
ag32
ag33
ag302
ag345
asg193
(lp2426
g187
ag144
ag146
ag56
ag340
asg187
(lp2427
g144
ag146
ag56
ag343
ag344
ag188
ag189
asg1204
(lp2428
g707
ag572
ag580
ag1112
ag1639
ag1640
ag386
ag387
ag1205
ag1206
ag37
ag222
ag228
ag229
asg573
(lp2429
g125
ag1695
ag1158
ag844
ag574
ag575
ag576
ag39
ag194
ag225
ag205
ag206
ag207
ag208
ag209
asg1448
(lp2430
g728
ag729
ag968
ag1353
ag846
ag861
ag874
ag1335
ag831
ag1222
ag1067
ag1070
ag343
ag1071
asg728
(lp2431
g968
ag1353
ag846
ag861
ag874
ag1335
ag831
ag730
ag950
ag1055
ag1068
ag90
ag93
ag94
ag95
ag96
ag97
ag98
ag99
ag100
ag101
ag102
ag64
ag103
ag104
ag105
ag106
ag107
asg968
(lp2432
g1353
ag846
ag861
ag874
ag1335
ag831
ag951
ag2193
ag489
ag1479
ag991
ag356
ag1030
ag1788
asg172
(lp2433
g313
ag160
ag193
ag187
ag144
ag146
ag56
ag71
ag72
ag173
ag174
asg776
(lp2434
g1412
ag1413
ag1398
ag1885
ag1448
ag728
ag729
ag968
ag1353
ag846
ag861
ag874
ag1335
ag831
ag777
ag1988
ag1360
ag1364
ag1365
ag1006
ag1009
ag332
ag1010
ag1011
asg1412
(lp2435
g1398
ag1885
ag1448
ag728
ag729
ag968
ag1353
ag846
ag861
ag874
ag1335
ag831
ag1414
ag1440
ag2329
ag2330
ag446
ag482
ag1993
ag269
ag270
ag1362
ag621
ag1590
ag1008
ag1013
ag1014
ag1015
ag585
ag1016
asg1112
(lp2436
g987
ag1113
ag1114
ag1115
ag42
ag200
ag218
asg1398
(lp2437
g1885
ag1448
ag728
ag729
ag968
ag1353
ag846
ag861
ag874
ag1335
ag831
ag1399
ag1400
ag1463
ag2250
ag484
ag468
ag469
ag2076
ag595
ag658
ag999
ag1002
ag58
ag251
ag70
ag71
ag72
ag73
ag74
asg275
(lp2438
g139
ag172
ag313
ag160
ag193
ag187
ag144
ag146
ag56
ag337
asg1885
(lp2439
g1448
ag728
ag729
ag968
ag1353
ag846
ag861
ag874
ag1335
ag831
ag1886
ag1451
ag1119
ag1578
ag1984
ag1987
ag373
ag604
ag1531
ag1001
ag61
ag159
ag320
ag435
ag1005
asg2421
(lp2440
g126
ag1957
asg126
(lp2441
g127
ag613
ag614
ag615
ag616
ag354
ag355
ag617
asg431
(lp2442
g415
ag388
ag371
ag399
ag423
ag1070
ag432
ag134
ag187
ag188
ag189
asg415
(lp2443
g388
ag371
ag399
ag423
ag102
ag719
ag135
ag144
ag148
ag149
ag150
ag151
asg2166
(lp2444
sg1305
(lp2445
g1306
ag937
asg1629
(lp2446
g463
ag377
ag1535
ag431
ag415
ag388
ag371
ag399
ag423
ag1630
ag128
ag139
ag140
asg674
(lp2447
g1189
ag1475
ag360
ag675
ag676
asg377
(lp2448
g1535
ag431
ag415
ag388
ag371
ag399
ag423
ag716
ag378
ag132
ag160
ag161
ag162
asg423
(lp2449
g1944
ag1065
ag424
ag16
asg1504
(lp2450
g2166
ag933
ag935
ag745
ag316
ag936
asg386
(lp2451
g398
ag422
ag388
ag389
ag136
ag146
ag155
ag156
ag157
asg1728
(lp2452
g799
ag762
ag716
ag718
ag719
ag720
ag257
ag259
ag260
ag1704
ag1298
ag1148
ag334
asS'DOC'
p2453
(lp2454
g2250
ag1117
ag1119
ag960
ag1067
ag1055
ag1068
ag1057
ag1058
ag1059
ag1060
ag1061
ag1062
ag1063
ag2148
ag138
asg388
(lp2455
g371
ag399
ag423
ag1192
ag1193
ag720
ag389
ag136
ag146
ag155
ag156
ag157
asg557
(lp2456
g674
ag1360
ag978
ag979
ag1363
ag44
ag331
ag558
asg371
(lp2457
g399
ag423
ag257
ag261
ag11
ag137
ag18
asg399
(lp2458
g423
ag1538
ag1677
ag260
ag400
ag15
ag56
ag57
asg245
(lp2459
g246
ag247
ag248
ag249
ag389
ag1692
ag1768
asg2063
(lp2460
g1436
ag1429
ag1086
ag1166
ag1168
ag1169
ag1170
ag1171
ag1107
ag891
ag592
ag593
ag941
ag942
ag29
ag943
ag944
asg959
(lp2461
sS'UCA'
p2462
(lp2463
g1297
ag1485
ag981
ag1653
ag1654
ag653
asg1507
(lp2464
g1499
ag420
ag1540
ag1189
ag1476
ag565
ag985
ag1045
ag946
ag1046
asg1329
(lp2465
g962
ag1070
ag102
ag1192
ag1193
ag1538
ag928
ag1944
ag1035
ag1053
ag62
ag1330
ag1331
asg562
(lp2466
g563
ag564
ag421
ag1570
ag1771
ag1610
ag41
ag199
ag217
ag1772
asg148
(lp2467
g18
ag1468
ag57
ag1604
ag106
ag909
ag177
ag150
ag151
asg171
(lp2468
g745
asg246
(lp2469
g247
ag248
ag249
ag400
ag65
ag600
ag882
ag883
ag219
ag884
asg1002
(lp2470
g1122
ag1966
ag1329
ag962
ag1070
ag102
ag1192
ag1193
ag1538
ag928
ag1944
ag1035
ag762
ag58
ag251
ag70
ag71
ag72
ag73
ag74
asS'KAF'
p2471
(lp2472
g1688
ag1690
ag1089
ag1250
ag1339
ag1110
ag1111
ag1232
ag1542
ag515
asg940
(lp2473
g544
ag2175
ag705
ag864
ag678
ag1508
ag1800
ag695
ag696
ag1770
ag836
asg1559
(lp2474
g1501
ag712
asg1562
(lp2475
g1634
ag1481
ag1698
ag987
ag1035
ag68
ag712
ag180
ag1033
ag1036
asg1648
(lp2476
g507
ag1023
asg524
(lp2477
g525
ag526
ag527
ag528
ag529
ag530
ag531
ag532
ag533
ag2175
ag1479
ag1743
ag1840
ag645
ag36
ag304
ag305
ag358
asg1103
(lp2478
g833
ag2139
ag1104
ag1105
ag1106
ag1107
ag1108
ag1109
ag1110
ag1111
ag532
ag563
ag564
ag1112
ag1113
ag1114
ag1115
ag42
ag200
ag218
asg1440
(lp2479
g1463
ag1754
ag1451
ag948
ag950
ag951
ag952
ag953
ag954
ag955
ag956
ag957
ag958
ag959
ag1441
ag2329
ag2330
ag446
ag482
ag1993
ag269
ag270
ag1362
ag621
ag1590
ag1008
ag1013
ag1014
ag1015
ag585
ag1016
asg1690
(lp2480
g1089
ag1250
ag1339
ag1110
ag1111
ag1608
ag1609
ag28
ag299
asS'EDH'
p2481
(lp2482
g1289
asg1309
(lp2483
g1540
ag1541
ag1310
ag925
asg833
(lp2484
g2139
ag692
ag834
ag285
ag835
ag836
ag837
ag838
asg712
(lp2485
g713
ag714
ag715
ag180
ag1033
ag1036
asg13
(lp2486
g15
ag16
ag826
ag493
ag1468
ag51
asg1506
(lp2487
g1309
ag1507
aS'ULU'
p2488
asS'DEV'
p2489
(lp2490
S'DEW'
p2491
ag833
ag1720
ag1800
ag990
ag247
asg848
(lp2492
g1305
ag849
ag281
ag850
ag705
ag851
ag852
ag853
ag854
ag855
ag856
ag857
ag858
asg750
(lp2493
g848
ag1266
ag751
ag702
ag244
ag752
asg996
(lp2494
g2286
ag49
ag335
asg1092
(lp2495
g1987
ag286
ag95
ag1242
ag1470
ag1500
ag2133
ag1562
ag888
ag1120
ag1121
ag655
ag1122
ag60
ag742
ag314
ag1123
ag1124
ag1125
asg749
(lp2496
g731
ag2489
ag2491
ag833
ag960
ag750
ag751
ag702
ag244
ag752
asg969
(lp2497
g1506
ag1309
ag2193
ag1871
asg718
(lp2498
g719
ag720
ag257
ag259
ag260
asg1993
(lp2499
g2076
ag1092
ag1987
ag286
ag95
ag1242
ag1470
ag1500
ag2133
ag1562
ag797
ag269
ag270
ag1362
ag621
ag1590
ag1008
ag1013
ag1014
ag1015
ag585
ag1016
asS'DEB'
p2500
(lp2501
g810
ag1887
ag749
ag731
ag2489
ag2491
ag833
ag1959
ag2329
ag2330
ag787
ag1916
ag1918
ag1145
ag1680
asg1755
(lp2502
g1223
ag1199
ag1176
ag1245
ag790
ag460
ag888
ag895
ag635
ag743
ag744
ag315
asg810
(lp2503
g1887
ag749
ag731
ag2489
ag2491
ag833
ag1712
ag1117
ag790
ag998
ag811
ag812
ag813
ag814
ag815
ag816
ag817
ag818
ag239
ag240
ag819
ag310
ag820
ag821
ag822
ag823
asg1887
(lp2504
g749
ag731
ag2489
ag2491
ag833
ag1714
ag1119
ag791
ag1888
ag603
ag1797
ag1889
ag1890
ag242
ag1151
ag319
asS'AMI'
p2505
(lp2506
g663
ag165
ag166
ag2203
ag1814
ag1757
asg62
(lp2507
g63
ag64
ag65
ag66
ag67
ag68
ag1330
ag1331
asg63
(lp2508
g64
ag65
ag66
ag67
ag68
ag1558
ag1898
asg64
(lp2509
g65
ag66
ag67
ag68
ag639
ag103
ag104
ag105
ag106
ag107
asg493
(lp2510
g1468
ag51
asg114
(lp2511
g79
ag2505
aS'AMI'
p2512
ag663
ag165
ag166
ag115
ag116
ag117
ag118
ag119
ag120
ag121
ag122
ag1369
ag47
asg1014
(lp2513
g2148
ag58
ag251
ag60
ag61
ag62
ag63
ag64
ag65
ag66
ag67
ag68
ag633
ag585
ag1016
asg528
(lp2514
g529
ag530
ag531
ag532
ag533
ag864
ag1467
ag2166
ag649
ag1350
ag402
ag494
ag495
asg79
(lp2515
g2505
ag2512
ag663
ag165
ag166
ag80
ag81
ag82
ag83
ag84
ag85
ag86
ag87
ag88
ag1095
ag1443
asg60
(lp2516
g61
ag62
ag63
ag64
ag65
ag66
ag67
ag68
ag635
ag935
ag742
ag314
ag1123
ag1124
ag1125
asg385
(lp2517
g1467
ag397
ag1580
ag1581
ag1190
ag386
ag387
ag388
ag389
ag136
ag146
ag155
ag156
ag157
asg61
(lp2518
g62
ag63
ag64
ag65
ag66
ag67
ag68
ag636
ag159
ag320
ag435
ag1005
asg165
(lp2519
g167
ag168
asg68
(lp2520
g712
ag180
ag1033
ag1036
asg77
(lp2521
g5
ag670
ag78
ag79
ag80
ag81
ag82
ag83
ag84
ag85
ag86
ag87
ag88
ag1093
ag1097
ag1098
asg468
(lp2522
g1984
ag1986
ag501
ag94
ag489
ag1136
ag1137
ag1140
ag392
ag1735
ag470
ag2076
ag595
ag658
ag999
ag1002
ag58
ag251
ag70
ag71
ag72
ag73
ag74
asg1464
(lp2523
g1755
ag1223
ag1199
ag1176
ag1245
ag789
ag485
ag470
ag760
ag761
ag659
ag762
ag69
ag170
ag517
asg513
(lp2524
g1317
ag1444
asg663
(lp2525
g165
ag166
ag664
ag665
ag666
ag667
ag668
asg66
(lp2526
g67
ag68
ag1501
ag971
ag1302
ag1032
ag1388
asg1488
(lp2527
g181
ag915
ag1489
ag476
asg1576
(lp2528
g478
asg1986
(lp2529
g501
ag94
ag489
ag1136
ag1137
ag1140
ag392
ag1735
ag286
ag1326
ag1328
ag1329
ag62
ag1330
ag1331
asg333
(lp2530
g1488
ag181
ag334
ag335
ag981
asg801
(lp2531
g803
ag1317
asg181
(lp2532
g418
asg1033
(lp2533
g418
ag1036
asg2488
(lp2534
g1866
ag480
ag1669
asg73
(lp2535
g1123
ag435
ag405
ag1302
ag74
asg1123
(lp2536
g435
ag405
ag1302
ag1124
ag1125
asg435
(lp2537
g405
ag1302
ag436
ag1005
asg767
(lp2538
g1563
ag994
ag651
ag768
ag653
asg961
(lp2539
g98
ag1187
ag1138
ag1142
ag1189
ag1746
ag962
ag191
ag192
ag340
ag405
asg1856
(lp2540
g252
ag253
ag310
ag319
ag347
ag930
ag2012
ag139
asg580
(lp2541
g1112
ag1210
ag986
ag581
ag582
ag40
ag198
ag216
ag583
asS'ICY'
p2542
(lp2543
g1563
asg909
(lp2544
g921
ag262
ag221
ag177
ag143
asg655
(lp2545
g1531
ag1328
ag99
ag100
ag991
ag1191
ag899
ag571
ag565
ag579
ag1698
ag1122
ag60
ag742
ag314
ag1123
ag1124
ag1125
asg8
(lp2546
g9
asg322
(lp2547
g204
asg84
(lp2548
g8
ag86
ag87
ag88
ag765
ag766
asg121
(lp2549
g84
ag85
ag8
ag122
ag763
ag767
ag651
ag768
ag653
asg992
(lp2550
g1639
ag1640
ag879
ag880
ag1210
ag993
asg743
(lp2551
g914
ag917
ag186
ag184
ag154
ag17
ag826
ag973
ag974
ag745
ag315
asg170
(lp2552
g743
ag744
ag914
ag917
ag186
ag184
ag154
ag17
ag826
ag973
ag974
ag171
ag517
asg36
(lp2553
g37
ag38
ag39
ag40
ag41
ag42
ag615
ag616
ag304
ag305
ag358
asg1242
(lp2554
g1470
ag1500
ag2133
ag1562
ag893
ag920
ag1187
ag1190
ag1191
ag1192
ag1193
ag153
ag226
ag1031
asg1524
(lp2555
S'ACH'
p2556
aS'ACT'
p2557
ag1525
ag1526
ag75
ag77
ag78
ag79
ag80
ag81
ag82
ag83
ag84
ag85
ag86
ag87
ag88
aS'ICE'
p2558
asg290
(lp2559
g992
ag1639
ag1640
ag879
ag880
ag1210
ag291
ag292
asg1467
(lp2560
g397
ag1580
ag1581
ag2166
ag13
ag14
ag493
ag1468
ag51
asg184
(lp2561
g154
ag17
ag826
ag973
ag974
ag147
ag909
ag143
asg186
(lp2562
g184
ag154
ag17
ag826
ag973
ag974
ag344
ag806
asg2556
(lp2563
g2557
ag1854
ag1213
aS'ICH'
p2564
ag1721
ag1724
asg917
(lp2565
g186
ag184
ag154
ag17
ag826
ag973
ag974
asg1473
(lp2566
g393
ag841
ag842
ag681
ag843
ag844
ag260
ag600
ag203
ag221
asg914
(lp2567
g917
ag186
ag184
ag154
ag17
ag826
ag973
ag974
ag915
asg781
(lp2568
g1918
ag1238
ag817
ag1233
ag290
ag992
ag1639
ag1640
ag879
ag880
ag1210
ag1006
ag782
ag783
ag43
ag330
ag784
ag785
ag786
asg1291
(lp2569
g1356
ag1028
ag1357
ag1358
ag1359
ag1292
asg973
(lp2570
g974
asg27
(lp2571
g28
ag29
ag30
ag31
ag32
ag33
ag34
ag35
ag36
ag37
ag38
ag39
ag40
ag41
ag42
ag1130
ag1132
ag1133
ag1134
ag1054
ag914
ag297
ag298
ag434
asg826
(lp2572
g973
ag974
ag53
asg17
(lp2573
g826
ag973
ag974
ag233
ag262
asg912
(lp2574
g913
ag914
ag915
asg2557
(lp2575
g1791
ag553
ag661
ag662
ag663
ag664
ag665
ag666
ag667
ag668
asg1210
(lp2576
g986
ag926
ag929
ag930
ag931
asg879
(lp2577
g1210
ag398
ag984
ag843
ag881
ag246
ag882
ag883
ag219
ag884
asS'IDE'
p2578
(lp2579
g1291
ag1738
ag1097
ag1395
ag2282
asg479
(lp2580
g480
asg1639
(lp2581
g879
ag880
ag1210
ag386
ag387
ag1767
ag245
ag1692
ag1768
asg1368
(lp2582
g2578
ag1291
ag1296
ag1369
ag977
ag1370
ag767
ag994
aS'ODA'
p2583
asg1983
(lp2584
sg98
(lp2585
g1187
ag1138
ag1142
ag1189
ag99
ag100
ag101
ag102
ag64
ag103
ag104
ag105
ag106
ag107
asg347
(lp2586
g930
ag2012
ag144
ag105
ag147
ag738
ag739
ag740
asg762
(lp2587
g716
ag718
ag719
ag720
ag257
ag259
ag260
ag69
ag170
ag517
asg330
(lp2588
g1856
ag252
ag253
ag310
ag319
ag347
ag930
ag2012
ag331
ag332
ag333
ag334
ag335
ag784
ag785
ag786
asS'ODS'
p2589
(lp2590
g1983
ag866
ag1484
ag1566
asg252
(lp2591
g310
ag319
ag347
ag930
ag2012
ag172
ag71
ag72
ag254
ag255
ag256
asg310
(lp2592
g319
ag347
ag930
ag2012
ag311
ag312
ag313
ag314
ag315
ag316
ag820
ag821
ag822
ag823
asg1645
(lp2593
g1546
ag611
ag1754
ag1755
ag1154
ag1709
ag311
ag312
asg319
(lp2594
g347
ag930
ag2012
ag160
ag320
ag321
ag322
asg2012
(lp2595
g519
asg1608
(lp2596
g541
ag542
ag550
ag551
ag1206
ag1350
ag576
ag582
ag1610
ag1114
ag1115
ag28
ag299
asg1508
(lp2597
g1800
ag695
ag696
ag1770
ag836
ag1476
asg2583
(lp2598
S'ODD'
p2599
ag2282
ag2589
ag1983
ag1021
ag1024
ag1025
ag980
ag651
ag768
asg1136
(lp2600
g1140
ag392
ag1735
ag937
ag755
ag1138
ag899
ag983
ag231
ag232
ag1049
asg2599
(lp2601
g2282
ag2589
ag1983
ag2259
aS'OLD'
p2602
ag2057
asg2282
(lp2603
g2589
ag1983
ag1284
ag1483
ag1711
ag1315
ag513
ag1317
asg2329
(lp2604
g2453
ag2250
ag1117
ag1119
ag960
ag1067
ag1055
ag1068
ag1057
ag1058
ag1059
ag1060
ag1061
ag1062
ag1063
ag787
ag446
ag482
ag1993
ag269
ag270
ag1362
ag621
ag1590
ag1008
ag1013
ag1014
ag1015
ag585
ag1016
asg930
(lp2605
g2012
ag971
ag931
asg1274
(lp2606
g1266
ag1751
ag1752
ag1314
ag1275
asg2161
(lp2607
g811
ag686
ag688
ag689
ag690
ag691
ag692
ag693
ag441
ag484
ag485
ag2073
ag2162
ag1235
ag1237
ag594
ag1238
ag1239
ag237
ag1146
ag252
ag253
ag254
ag255
ag256
asg811
(lp2608
g686
ag688
ag689
ag690
ag691
ag692
ag693
ag442
ag487
ag812
ag813
ag814
ag815
ag816
ag817
ag818
ag239
ag240
ag819
ag310
ag820
ag821
ag822
ag823
asg2355
(lp2609
sg1176
(lp2610
g1245
ag368
ag369
ag755
ag828
ag706
ag829
ag257
ag17
ag233
ag262
asg1266
(lp2611
g1751
ag1752
ag1314
ag1267
ag1268
asg1199
(lp2612
g1176
ag1245
ag1050
ag795
ag407
ag893
ag720
ag154
ag227
ag921
asg1288
(lp2613
S'ELD'
p2614
ag1280
ag1749
ag1274
ag1266
ag1751
ag1752
ag1314
asg1280
(lp2615
g1749
ag1274
ag1266
ag1751
ag1752
ag1314
asg153
(lp2616
g55
ag1045
ag1559
ag1501
ag712
ag154
ag226
ag1031
asg2614
(lp2617
g1280
ag1749
ag1274
ag1266
ag1751
ag1752
ag1314
ag1776
ag1391
ag2259
ag2602
asg1551
(lp2618
g1981
ag3
ag164
ag165
ag166
ag167
ag168
asg691
(lp2619
g692
ag693
ag1499
ag283
ag1207
ag695
ag696
ag578
ag1210
ag926
ag929
ag930
ag931
asS'ADD'
p2620
(lp2621
g1525
ag1526
ag1534
ag1551
ag1981
ag2339
ag2201
ag2055
ag2599
asg1525
(lp2622
g1534
ag1551
ag1981
ag75
ag77
ag78
ag79
ag80
ag81
ag82
ag83
ag84
ag85
ag86
ag87
ag88
ag2578
ag2282
asg1441
(lp2623
g1464
ag1755
ag1223
ag1199
ag1176
ag1245
ag787
ag447
ag797
ag798
ag799
ag633
ag586
ag337
asg1520
(lp2624
g2620
ag1525
ag1526
ag1534
ag1551
ag1981
ag108
ag110
ag111
ag112
ag113
ag114
ag115
ag116
ag117
ag118
ag119
ag120
ag121
ag122
ag1368
ag2583
asg1534
(lp2625
g1551
ag1981
ag1
ag4
ag5
ag6
ag7
ag8
ag9
ag1289
ag1291
ag1292
asg1223
(lp2626
g1199
ag1176
ag1245
ag1425
ag792
ag1224
ag497
ag498
ag805
ag534
ag535
ag700
ag637
ag638
ag186
ag344
ag806
asg2491
(lp2627
g833
ag1063
ag691
ag283
ag1207
ag695
ag696
ag578
ag1210
ag926
ag929
ag930
ag931
asg821
(lp2628
g292
ag1020
ag738
ag856
ag868
ag219
ag838
ag1124
ag936
ag822
ag823
asg1314
(lp2629
sg692
(lp2630
g693
ag1309
ag1540
ag1541
ag834
ag285
ag835
ag836
ag837
ag838
asg161
(lp2631
g189
ag148
ag149
ag18
ag1468
ag57
ag1604
ag1005
ag162
asg779
(lp2632
g594
ag815
ag816
ag603
ag289
ag940
ag544
ag2175
ag705
ag864
ag678
ag1508
ag1800
ag695
ag696
ag1770
ag836
ag1364
ag1365
ag781
ag782
ag783
ag43
ag330
ag784
ag785
ag786
asg1797
(lp2633
g702
ag699
ag735
ag988
ag851
ag865
ag570
ag990
ag578
ag375
ag1531
ag901
ag1889
ag1890
ag242
ag1151
ag319
asg173
(lp2634
g161
ag189
ag148
ag149
ag18
ag1468
ag57
ag1604
ag74
ag517
ag174
asg594
(lp2635
g815
ag816
ag603
ag289
ag940
ag544
ag2175
ag705
ag864
ag678
ag1508
ag1800
ag695
ag696
ag1770
ag836
ag471
ag595
ag1238
ag1239
ag237
ag1146
ag252
ag253
ag254
ag255
ag256
asg815
(lp2636
g603
ag289
ag940
ag544
ag2175
ag705
ag864
ag678
ag1508
ag1800
ag695
ag696
ag1770
ag836
ag462
ag895
ag1504
ag817
ag818
ag239
ag240
ag819
ag310
ag820
ag821
ag822
ag823
asg603
(lp2637
g289
ag940
ag544
ag2175
ag705
ag864
ag678
ag1508
ag1800
ag695
ag696
ag1770
ag836
ag604
ag605
ag606
ag1797
ag1889
ag1890
ag242
ag1151
ag319
asg699
(lp2638
g735
ag988
ag851
ag865
ag570
ag990
ag578
ag429
ag700
ag1020
asg702
(lp2639
g699
ag735
ag988
ag851
ag865
ag570
ag990
ag578
ag504
ag505
ag244
ag752
asg189
(lp2640
g148
ag149
ag18
ag1468
ag57
ag1604
asg735
(lp2641
g988
ag851
ag865
ag570
ag990
ag578
ag414
ag99
ag100
ag907
ag736
ag737
ag347
ag738
ag739
ag740
asg544
(lp2642
g2175
ag705
ag864
ag678
ag1508
ag1800
ag695
ag696
ag1770
ag836
ag412
ag413
ag735
ag736
ag737
ag347
ag738
ag739
ag740
asg2175
(lp2643
g705
ag864
ag678
ag1508
ag1800
ag695
ag696
ag1770
ag836
ag1479
ag1743
ag1840
ag988
ag992
ag993
asg570
(lp2644
g990
ag578
ag571
ag879
ag880
ag881
ag246
ag882
ag883
ag219
ag884
asg705
(lp2645
g864
ag678
ag1508
ag1800
ag695
ag696
ag1770
ag836
ag706
ag851
ag852
ag853
ag854
ag855
ag856
ag857
ag858
asg57
(lp2646
g1604
ag220
ag221
asg678
(lp2647
g1508
ag1800
ag695
ag696
ag1770
ag836
ag397
ag679
ag680
ag681
ag570
ag879
ag880
ag881
ag246
ag882
ag883
ag219
ag884
asg18
(lp2648
g1468
ag57
ag1604
ag262
asg865
(lp2649
g570
ag990
ag578
ag1663
ag825
ag866
ag867
ag868
ag869
asg851
(lp2650
g865
ag570
ag990
ag578
ag370
ag899
ag852
ag853
ag854
ag855
ag856
ag857
ag858
asg1770
(lp2651
g836
ag1480
ag1744
ag248
ag249
ag1775
ag1196
ag1227
asg836
(lp2652
g1481
ag837
ag838
asg1604
(lp2653
sg777
(lp2654
g1419
ag1422
ag975
ag977
ag978
ag979
ag980
ag333
ag981
asg1444
(lp2655
g1861
ag871
ag1445
asg335
(lp2656
g1489
ag357
asg1450
(lp2657
g1244
ag1451
ag1714
ag443
ag452
ag266
ag375
ag376
ag377
ag378
ag132
ag160
ag161
ag162
asg731
(lp2658
g2489
ag2491
ag833
ag1716
ag1055
ag1068
ag793
ag688
ag732
ag279
ag733
ag734
ag544
ag735
ag736
ag737
ag347
ag738
ag739
ag740
asg1141
(lp2659
g1212
ag1209
ag1634
ag1142
asg1462
(lp2660
g1450
ag1244
ag1463
ag1464
ag1954
ag441
ag466
ag471
ag472
ag473
ag250
ag130
ag172
ag173
ag174
asg1489
(lp2661
g357
asg233
(lp2662
g203
ag1529
ag262
asg1861
(lp2663
g871
asg871
(lp2664
sg1840
(lp2665
g357
asg1244
(lp2666
g955
ag1245
ag1719
ag364
ag390
ag394
ag395
ag396
ag397
ag398
ag399
ag400
ag15
ag56
ag57
asg1362
(lp2667
g1326
ag961
ag98
ag1187
ag1138
ag1142
ag1189
ag621
ag1590
ag1008
ag1013
ag1014
ag1015
ag585
ag1016
asg1402
(lp2668
g1408
ag1452
ag1459
aS'DAK'
p2669
ag1434
ag1426
ag1080
ag1081
aS'DAO'
p2670
ag1200
ag1177
ag1348
ag1336
ag1103
ag1954
ag2250
ag789
ag1403
ag1404
ag1405
ag1406
ag587
ag596
ag597
ag598
ag24
ag293
ag329
ag306
ag307
ag308
asg1408
(lp2671
g1452
ag1459
ag2669
ag1434
ag1426
ag1080
ag1081
ag2670
ag1200
ag1177
ag1348
ag1336
ag1103
ag810
ag1712
ag1117
ag790
ag998
ag1409
ag642
ag656
ag295
ag317
asg1045
(lp2672
g1559
ag1501
ag712
ag1780
ag1781
ag973
ag946
ag1046
asg1452
(lp2673
g1459
ag2669
ag1434
ag1426
ag1080
ag1081
ag2670
ag1200
ag1177
ag1348
ag1336
ag1103
ag1887
ag1714
ag1119
ag791
ag1453
ag1454
ag1455
ag1456
ag589
ag607
ag608
ag609
ag25
ag296
ag323
ag324
ag325
asg1416
(lp2674
g1402
ag1408
ag1452
ag1459
ag2669
ag1434
ag1426
ag1080
ag1081
ag2670
ag1200
ag1177
ag1348
ag1336
ag1103
ag2500
aS'DEB'
p2675
ag1959
ag2329
ag2330
ag787
ag1417
ag1418
ag618
ag622
ag623
ag624
ag625
ag21
ag327
ag328
ag338
asg1082
(lp2676
g1178
ag1246
ag90
ag92
ag1083
ag1084
ag1085
ag1086
ag1087
ag1088
ag1089
ag523
ag545
ag546
ag547
ag548
ag549
ag550
ag551
ag34
ag35
ag303
ag348
ag349
ag350
ag351
ag352
asg1434
(lp2677
g1426
ag1080
ag1081
ag2670
ag1200
ag1177
ag1348
ag1336
ag1103
ag749
ag960
ag1435
ag1436
ag644
ag703
ag30
ag31
ag300
ag301
ag341
asg1426
(lp2678
g1080
ag1081
ag2670
ag1200
ag1177
ag1348
ag1336
ag1103
ag1715
ag1067
ag792
ag1427
ag1428
ag1429
ag1430
ag1431
ag521
ag536
ag537
ag538
ag539
ag540
ag541
ag542
ag32
ag33
ag302
ag345
asg1080
(lp2679
g2670
ag1200
ag1177
ag1348
ag1336
ag1103
ag731
ag1716
ag1055
ag1068
ag793
ag1082
ag1083
ag1084
ag1085
ag1086
ag1087
ag1088
ag1089
ag523
ag545
ag546
ag547
ag548
ag549
ag550
ag551
ag34
ag35
ag303
ag348
ag349
ag350
ag351
ag352
asg2670
(lp2680
g1200
ag1177
ag1348
ag1336
ag1103
ag794
ag1166
ag1172
ag524
ag645
ag36
ag304
ag305
ag358
asg1459
(lp2681
g2669
ag1434
ag1426
ag1080
ag1081
ag2670
ag1200
ag1177
ag1348
ag1336
ag1103
ag1460
ag643
ag683
ag684
ag26
ag516
ag685
asg2669
(lp2682
g1434
ag1426
ag1080
ag1081
ag2670
ag1200
ag1177
ag1348
ag1336
ag1103
ag2063
ag592
ag593
ag941
ag942
ag29
ag943
ag944
asg1336
(lp2683
g1103
ag2491
ag1063
ag1337
ag1171
ag1338
ag1339
ag530
ag561
ag580
ag581
ag582
ag40
ag198
ag216
ag583
asg1200
(lp2684
g1177
ag1348
ag1336
ag1103
ag1717
ag1057
ag795
ag1201
ag1168
ag1202
ag1203
ag525
ag646
ag1204
ag1205
ag1206
ag37
ag222
ag228
ag229
asg1177
(lp2685
g1348
ag1336
ag1103
ag1058
ag1059
ag1178
ag1179
ag1180
ag1181
ag526
ag527
ag647
ag648
ag707
ag708
ag709
ag38
ag224
ag234
ag235
ag236
asg1348
(lp2686
g1336
ag1103
ag1718
ag1060
ag1349
ag528
ag649
ag1350
ag402
ag494
ag495
asg1178
(lp2687
g1246
ag848
ag1305
ag1179
ag1180
ag1181
ag526
ag527
ag647
ag648
ag707
ag708
ag709
ag38
ag224
ag234
ag235
ag236
asg993
(lp2688
g1692
ag857
ag869
ag884
ag931
ag1227
ag519
asg1246
(lp2689
g1793
ag1314
ag1247
ag1248
ag1169
ag1249
ag1250
ag529
ag568
ag650
ag572
ag573
ag574
ag575
ag576
ag39
ag194
ag225
ag205
ag206
ag207
ag208
ag209
asg1987
(lp2690
g286
ag95
ag1242
ag1470
ag1500
ag2133
ag1562
ag889
ag373
ag604
ag1531
ag1001
ag61
ag159
ag320
ag435
ag1005
asg2076
(lp2691
g1092
ag1987
ag286
ag95
ag1242
ag1470
ag1500
ag2133
ag1562
ag760
ag595
ag658
ag999
ag1002
ag58
ag251
ag70
ag71
ag72
ag73
ag74
asg2564
(lp2692
g2542
ag1721
ag1724
asg1843
(lp2693
sg403
(lp2694
sg95
(lp2695
g1242
ag1470
ag1500
ag2133
ag1562
ag892
ag96
ag97
ag98
ag99
ag100
ag101
ag102
ag64
ag103
ag104
ag105
ag106
ag107
asg284
(lp2696
g285
ag2133
ag1906
ag1770
ag248
ag249
ag1775
ag1196
ag1227
asg2558
(lp2697
g2564
ag2542
ag2578
ag1738
ag1097
ag1395
asg285
(lp2698
g1562
ag835
ag836
ag837
ag838
asg1500
(lp2699
g2133
ag1562
ag1209
ag697
ag579
ag986
ag928
ag66
ag1501
ag971
ag1302
ag1032
ag1388
asg1470
(lp2700
g1500
ag2133
ag1562
ag841
ag1212
ag679
ag680
ag571
ag984
ag1538
ag65
ag55
ag201
ag220
ag601
asS'UGH'
p2701
(lp2702
g1861
asg1119
(lp2703
g960
ag1067
ag1055
ag1068
ag1057
ag1058
ag1059
ag1060
ag1061
ag1062
ag1063
ag791
ag1578
ag1984
ag1987
ag373
ag604
ag1531
ag1001
ag61
ag159
ag320
ag435
ag1005
asg1268
(lp2704
g2488
asg356
(lp2705
g226
ag231
ag232
ag201
ag946
ag971
ag212
ag180
ag357
ag1030
ag1788
asg1297
(lp2706
g1285
ag1268
ag2488
ag1485
ag981
ag1653
ag1654
ag653
asg2133
(lp2707
g1562
ag1480
ag1944
ag67
ag212
ag213
asg1285
(lp2708
g1268
ag2488
ag1443
ag1318
ag1444
ag1445
asg1663
(lp2709
g566
ag825
ag479
asg931
(lp2710
g1227
ag519
ag1388
asg1752
(lp2711
g1314
ag1778
ag1306
ag1843
asg2250
(lp2712
g1117
ag1119
ag960
ag1067
ag1055
ag1068
ag1057
ag1058
ag1059
ag1060
ag1061
ag1062
ag1063
ag789
ag484
ag468
ag469
ag2076
ag595
ag658
ag999
ag1002
ag58
ag251
ag70
ag71
ag72
ag73
ag74
asg1356
(lp2713
g1028
ag1357
ag1358
ag1359
asg812
(lp2714
g751
ag1017
ag732
ag964
ag849
ag863
ag876
ag834
ag965
ag458
ag460
ag814
ag815
ag816
ag817
ag818
ag239
ag240
ag819
ag310
ag820
ag821
ag822
ag823
as.