(dp0
S'BE'
p1
(lp2
S'BO'
p3
aS'BU'
p4
aS'BU'
p5
aS'BY'
p6
aS'CE'
p7
aS'DE'
p8
aS'FE'
p9
aS'GE'
p10
aS'GE'
p11
aS'HE'
p12
aS'IE'
p13
aS'ME'
p14
aS'NE'
p15
aS'OE'
p16
aS'RE'
p17
aS'SE'
p18
aS'TE'
p19
aS'WE'
p20
aS'YE'
p21
asg20
(lp22
S'WI'
p23
aS'WO'
p24
aS'WU'
p25
aS'WY'
p26
ag21
asS'BA'
p27
(lp28
g1
ag3
ag4
ag5
ag6
aS'CA'
p29
aS'DA'
p30
aS'EA'
p31
aS'FA'
p32
aS'GA'
p33
aS'GA'
p34
aS'HA'
p35
aS'KA'
p36
aS'LA'
p37
aS'MA'
p38
aS'MA'
p39
aS'NA'
p40
aS'PA'
p41
aS'RA'
p42
aS'SA'
p43
aS'TA'
p44
aS'WA'
p45
aS'WA'
p46
aS'YA'
p47
aS'ZA'
p48
asg45
(lp49
g20
ag23
ag24
ag25
ag26
ag47
ag48
asg24
(lp50
g25
ag26
aS'YO'
p51
aS'ZO'
p52
asS'JU'
p53
(lp54
S'LU'
p55
aS'MU'
p56
aS'NU'
p57
aS'PU'
p58
aS'TU'
p59
aS'VU'
p60
ag25
asg3
(lp61
g4
ag5
ag6
aS'DO'
p62
aS'FO'
p63
aS'GO'
p64
aS'HO'
p65
aS'HO'
p66
aS'IO'
p67
aS'IO'
p68
aS'JO'
p69
aS'JO'
p70
aS'KO'
p71
aS'KO'
p72
aS'LO'
p73
aS'LO'
p74
aS'MO'
p75
aS'MO'
p76
aS'NO'
p77
aS'NO'
p78
aS'PO'
p79
aS'PO'
p80
aS'RO'
p81
aS'SO'
p82
aS'TO'
p83
ag24
ag51
ag52
asg23
(lp84
g24
ag25
ag26
aS'XI'
p85
asg4
(lp86
g6
aS'EU'
p87
aS'FU'
p88
aS'HU'
p89
ag53
ag55
ag56
ag57
ag58
ag59
ag60
ag25
asg25
(lp90
g26
asg69
(lp91
g53
ag71
ag72
ag73
ag74
ag75
ag76
ag77
ag78
ag79
ag80
ag81
ag82
ag83
ag24
ag51
ag52
asS'JI'
p92
(lp93
g69
ag70
ag53
aS'LI'
p94
aS'MI'
p95
aS'NI'
p96
aS'PI'
p97
aS'SI'
p98
aS'TI'
p99
aS'TI'
p100
ag23
ag85
asg6
(lp101
S'EY'
p102
aS'HY'
p103
aS'LY'
p104
aS'MY'
p105
ag26
asg26
(lp106
sg88
(lp107
g89
ag53
ag55
ag56
ag57
ag58
ag59
ag60
ag25
asg17
(lp108
g81
ag18
ag19
ag20
ag21
asg42
(lp109
g17
ag81
ag43
ag44
ag45
ag46
ag47
ag48
asg81
(lp110
g82
ag83
ag24
ag51
ag52
asg10
(lp111
S'GI'
p112
ag64
ag12
ag13
ag14
ag15
ag16
ag17
ag18
ag19
ag20
ag21
asg33
(lp113
g10
ag11
ag112
ag64
ag35
ag36
ag37
ag38
ag39
ag40
ag41
ag42
ag43
ag44
ag45
ag46
ag47
ag48
asg64
(lp114
g65
ag66
ag67
ag68
ag69
ag70
ag71
ag72
ag73
ag74
ag75
ag76
ag77
ag78
ag79
ag80
ag81
ag82
ag83
ag24
ag51
ag52
asg112
(lp115
g64
aS'HI'
p116
ag92
ag94
ag95
ag96
ag97
ag98
ag99
ag100
ag23
ag85
asS'ON'
p117
(lp118
S'OR'
p119
aS'OS'
p120
aS'OS'
p121
aS'OW'
p122
aS'OX'
p123
aS'UN'
p124
aS'YN'
p125
asS'OM'
p126
(lp127
g117
ag119
ag120
ag121
ag122
ag123
aS'UM'
p128
aS'YM'
p129
asS'OK'
p130
(lp131
g126
ag117
ag119
ag120
ag121
ag122
ag123
asS'OH'
p132
(lp133
g130
ag126
ag117
ag119
ag120
ag121
ag122
ag123
aS'SH'
p134
aS'TH'
p135
asS'OG'
p136
(lp137
g132
ag130
ag126
ag117
ag119
ag120
ag121
ag122
ag123
aS'UG'
p138
asS'OF'
p139
(lp140
g136
ag132
ag130
ag126
ag117
ag119
ag120
ag121
ag122
ag123
asg16
(lp141
g139
ag136
ag132
ag130
ag126
ag117
ag119
ag120
ag121
ag122
ag123
ag17
ag18
ag19
ag20
ag21
asS'OD'
p142
(lp143
g16
ag139
ag136
ag132
ag130
ag126
ag117
ag119
ag120
ag121
ag122
ag123
aS'TD'
p144
aS'UD'
p145
asg123
(lp146
sg122
(lp147
g123
asg104
(lp148
g105
ag26
asg120
(lp149
g122
ag123
aS'US'
p150
asg119
(lp151
g120
ag121
ag122
ag123
aS'UR'
p152
aS'YR'
p153
asg103
(lp154
g104
ag105
ag26
asg89
(lp155
g103
ag53
ag55
ag56
ag57
ag58
ag59
ag60
ag25
asg116
(lp156
g65
ag66
ag89
ag103
ag92
ag94
ag95
ag96
ag97
ag98
ag99
ag100
ag23
ag85
asg65
(lp157
g89
ag103
ag67
ag68
ag69
ag70
ag71
ag72
ag73
ag74
ag75
ag76
ag77
ag78
ag79
ag80
ag81
ag82
ag83
ag24
ag51
ag52
asg35
(lp158
g12
ag116
ag65
ag66
ag89
ag103
ag36
ag37
ag38
ag39
ag40
ag41
ag42
ag43
ag44
ag45
ag46
ag47
ag48
asg12
(lp159
g116
ag65
ag66
ag89
ag103
ag13
ag14
ag15
ag16
ag17
ag18
ag19
ag20
ag21
asg58
(lp160
g59
ag60
ag25
asg41
(lp161
g97
ag79
ag80
ag58
ag42
ag43
ag44
ag45
ag46
ag47
ag48
asg97
(lp162
g79
ag80
ag58
ag98
ag99
ag100
ag23
ag85
asg79
(lp163
g58
ag81
ag82
ag83
ag24
ag51
ag52
asS'EM'
p164
(lp165
S'EN'
p166
aS'ER'
p167
aS'ES'
p168
ag87
aS'EX'
p169
ag102
ag126
ag128
ag129
asS'EL'
p170
(lp171
g164
aS'EM'
p172
ag166
ag167
ag168
ag87
ag169
ag102
asg166
(lp173
g167
ag168
ag87
ag169
ag102
aS'IN'
p174
ag117
ag124
ag125
asS'EH'
p175
(lp176
g170
ag164
ag172
ag166
ag167
ag168
ag87
ag169
ag102
ag132
ag134
ag135
asS'ED'
p177
(lp178
g175
ag170
ag164
ag172
ag166
ag167
ag168
ag87
ag169
ag102
aS'ID'
p179
ag142
aS'OD'
p180
ag144
ag145
asg31
(lp181
g177
ag175
ag170
ag164
ag172
ag166
ag167
ag168
ag87
ag169
ag102
ag32
ag33
ag34
ag35
ag36
ag37
ag38
ag39
ag40
ag41
ag42
ag43
ag44
ag45
ag46
ag47
ag48
asg48
(lp182
g52
asS'IT'
p183
(lp184
S'ST'
p185
aS'UT'
p186
asg102
(lp187
g103
ag104
ag105
ag26
asg169
(lp188
g102
ag123
asg87
(lp189
g169
ag102
ag88
ag89
ag53
ag55
ag56
ag57
ag58
ag59
ag60
ag25
asg168
(lp190
g87
ag169
ag102
aS'IS'
p191
ag120
ag121
ag150
asg167
(lp192
g168
ag87
ag169
ag102
aS'MR'
p193
ag119
ag152
ag153
asg14
(lp194
g95
ag75
ag76
ag193
ag56
ag105
ag15
ag16
ag17
ag18
ag19
ag20
ag21
asg38
(lp195
g14
ag95
ag75
ag76
ag193
ag56
ag105
ag40
ag41
ag42
ag43
ag44
ag45
ag46
ag47
ag48
asg186
(lp196
sg75
(lp197
g193
ag56
ag105
ag77
ag78
ag79
ag80
ag81
ag82
ag83
ag24
ag51
ag52
asg95
(lp198
g75
ag76
ag193
ag56
ag105
ag96
ag97
ag98
ag99
ag100
ag23
ag85
asS'UP'
p199
(lp200
g152
ag150
ag186
asg150
(lp201
g186
asg152
(lp202
g150
ag186
ag153
asg128
(lp203
g124
ag199
ag152
ag150
ag186
ag129
asg124
(lp204
g199
ag152
ag150
ag186
ag125
asg193
(lp205
g56
ag105
ag119
ag152
ag153
asg145
(lp206
g138
ag128
ag124
ag199
ag152
ag150
ag186
asg138
(lp207
g128
ag124
ag199
ag152
ag150
ag186
asg105
(lp208
g26
asg60
(lp209
g25
asg67
(lp210
g191
ag183
ag69
ag70
ag71
ag72
ag73
ag74
ag75
ag76
ag77
ag78
ag79
ag80
ag81
ag82
ag83
ag24
ag51
ag52
asg32
(lp211
g9
aS'FI'
p212
ag63
ag88
ag33
ag34
ag35
ag36
ag37
ag38
ag39
ag40
ag41
ag42
ag43
ag44
ag45
ag46
ag47
ag48
asg9
(lp213
g212
ag63
ag88
ag10
ag11
ag12
ag13
ag14
ag15
ag16
ag17
ag18
ag19
ag20
ag21
asg212
(lp214
g63
ag88
ag112
ag116
ag92
ag94
ag95
ag96
ag97
ag98
ag99
ag100
ag23
ag85
asg63
(lp215
g88
ag64
ag65
ag66
ag67
ag68
ag69
ag70
ag71
ag72
ag73
ag74
ag75
ag76
ag77
ag78
ag79
ag80
ag81
ag82
ag83
ag24
ag51
ag52
asg191
(lp216
g183
ag120
ag121
ag150
asg96
(lp217
g77
ag78
ag57
ag97
ag98
ag99
ag100
ag23
ag85
asg77
(lp218
g57
ag79
ag80
ag81
ag82
ag83
ag24
ag51
ag52
asg40
(lp219
g15
ag96
ag77
ag78
ag57
ag41
ag42
ag43
ag44
ag45
ag46
ag47
ag48
asg125
(lp220
g51
ag153
asg15
(lp221
g96
ag77
ag78
ag57
ag16
ag17
ag18
ag19
ag20
ag21
asg57
(lp222
g58
ag59
ag60
ag25
asg85
(lp223
sg29
(lp224
g7
ag30
ag31
ag32
ag33
ag34
ag35
ag36
ag37
ag38
ag39
ag40
ag41
ag42
ag43
ag44
ag45
ag46
ag47
ag48
asg7
(lp225
g8
ag9
ag10
ag11
ag12
ag13
ag14
ag15
ag16
ag17
ag18
ag19
ag20
ag21
asg36
(lp226
g71
ag72
ag37
ag38
ag39
ag40
ag41
ag42
ag43
ag44
ag45
ag46
ag47
ag48
asg71
(lp227
g73
ag74
ag75
ag76
ag77
ag78
ag79
ag80
ag81
ag82
ag83
ag24
ag51
ag52
asg185
(lp228
g186
asg98
(lp229
g82
ag185
ag99
ag100
ag23
ag85
asg134
(lp230
g98
ag82
ag185
ag135
asg82
(lp231
g185
ag83
ag24
ag51
ag52
asg43
(lp232
g18
ag134
ag98
ag82
ag185
ag44
ag45
ag46
ag47
ag48
asg18
(lp233
g134
ag98
ag82
ag185
ag19
ag20
ag21
asg62
(lp234
g63
ag64
ag65
ag66
ag67
ag68
ag69
ag70
ag71
ag72
ag73
ag74
ag75
ag76
ag77
ag78
ag79
ag80
ag81
ag82
ag83
ag24
ag51
ag52
asg129
(lp235
g125
ag51
ag153
asg51
(lp236
g153
ag52
asS'DI'
p237
(lp238
g62
ag212
ag112
ag116
ag92
ag94
ag95
ag96
ag97
ag98
ag99
ag100
ag23
ag85
asg47
(lp239
g21
ag129
ag125
ag51
ag153
ag48
asg8
(lp240
g237
ag62
ag9
ag10
ag11
ag12
ag13
ag14
ag15
ag16
ag17
ag18
ag19
ag20
ag21
asg21
(lp241
g129
ag125
ag51
ag153
asg30
(lp242
g8
ag237
ag62
ag31
ag32
ag33
ag34
ag35
ag36
ag37
ag38
ag39
ag40
ag41
ag42
ag43
ag44
ag45
ag46
ag47
ag48
asg153
(lp243
sg56
(lp244
g105
ag57
ag58
ag59
ag60
ag25
asg37
(lp245
g94
ag73
ag74
ag55
ag104
ag38
ag39
ag40
ag41
ag42
ag43
ag44
ag45
ag46
ag47
ag48
asg73
(lp246
g55
ag104
ag75
ag76
ag77
ag78
ag79
ag80
ag81
ag82
ag83
ag24
ag51
ag52
asg59
(lp247
g60
ag25
asg94
(lp248
g73
ag74
ag55
ag104
ag95
ag96
ag97
ag98
ag99
ag100
ag23
ag85
asg83
(lp249
g59
ag24
ag51
ag52
asg55
(lp250
g104
ag56
ag57
ag58
ag59
ag60
ag25
asg135
(lp251
g99
ag100
ag83
ag59
asg99
(lp252
g83
ag59
ag23
ag85
asg144
(lp253
g19
ag135
ag99
ag100
ag83
ag59
ag145
asg19
(lp254
g135
ag99
ag100
ag83
ag59
ag20
ag21
asg44
(lp255
g144
ag19
ag135
ag99
ag100
ag83
ag59
ag45
ag46
ag47
ag48
asS'AA'
p256
(lp257
S'AB'
p258
aS'AD'
p259
aS'AE'
p260
aS'AH'
p261
aS'AH'
p262
aS'AI'
p263
aS'AK'
p264
aS'AL'
p265
aS'AL'
p266
aS'AM'
p267
aS'AN'
p268
aS'AO'
p269
aS'AR'
p270
aS'AS'
p271
aS'AS'
p272
aS'AT'
p273
aS'AW'
p274
aS'AX'
p275
aS'AY'
p276
aS'AY'
p277
ag27
ag29
ag30
ag31
ag32
ag33
ag34
ag35
ag36
ag37
ag38
ag39
ag40
ag41
ag42
ag43
ag44
ag45
ag46
ag47
ag48
asg258
(lp278
g259
ag260
ag261
ag262
ag263
ag264
ag265
ag266
ag267
ag268
ag269
ag270
ag271
ag272
ag273
ag274
ag275
ag276
ag277
asg260
(lp279
g261
ag262
ag263
ag264
ag265
ag266
ag267
ag268
ag269
ag270
ag271
ag272
ag273
ag274
ag275
ag276
ag277
ag1
ag7
ag8
ag9
ag10
ag11
ag12
ag13
ag14
ag15
ag16
ag17
ag18
ag19
ag20
ag21
asg259
(lp280
g260
ag261
ag262
ag263
ag264
ag265
ag266
ag267
ag268
ag269
ag270
ag271
ag272
ag273
ag274
ag275
ag276
ag277
ag177
ag179
ag142
ag180
ag144
ag145
asg263
(lp281
g264
ag265
ag266
ag267
ag268
ag269
ag270
ag271
ag272
ag273
ag274
ag275
ag276
ag277
ag237
ag212
ag112
ag116
ag92
ag94
ag95
ag96
ag97
ag98
ag99
ag100
ag23
ag85
asg261
(lp282
g263
ag264
ag265
ag266
ag267
ag268
ag269
ag270
ag271
ag272
ag273
ag274
ag275
ag276
ag277
ag175
ag132
ag134
ag135
asg264
(lp283
g265
ag266
ag267
ag268
ag269
ag270
ag271
ag272
ag273
ag274
ag275
ag276
ag277
ag130
asg267
(lp284
g268
ag269
ag270
ag271
ag272
ag273
ag274
ag275
ag276
ag277
ag164
ag172
ag126
ag128
ag129
asg265
(lp285
g267
ag268
ag269
ag270
ag271
ag272
ag273
ag274
ag275
ag276
ag277
ag170
asg269
(lp286
g270
ag271
ag272
ag273
ag274
ag275
ag276
ag277
ag3
ag62
ag63
ag64
ag65
ag66
ag67
ag68
ag69
ag70
ag71
ag72
ag73
ag74
ag75
ag76
ag77
ag78
ag79
ag80
ag81
ag82
ag83
ag24
ag51
ag52
asg268
(lp287
g269
ag270
ag271
ag272
ag273
ag274
ag275
ag276
ag277
ag166
ag174
ag117
ag124
ag125
asg271
(lp288
g273
ag274
ag275
ag276
ag277
ag168
ag191
ag120
ag121
ag150
asg270
(lp289
g271
ag272
ag273
ag274
ag275
ag276
ag277
ag167
ag193
ag119
ag152
ag153
asg273
(lp290
g274
ag275
ag276
ag277
ag183
ag185
ag186
asg274
(lp291
g275
ag276
ag277
ag122
asg174
(lp292
g67
ag68
ag191
ag183
ag117
ag124
ag125
asg276
(lp293
g6
ag102
ag103
ag104
ag105
ag26
asg275
(lp294
g276
ag277
ag169
ag123
asg13
(lp295
S'IF'
p296
ag174
ag67
ag68
ag191
ag183
ag14
ag15
ag16
ag17
ag18
ag19
ag20
ag21
asg179
(lp297
g13
ag296
ag174
ag67
ag68
ag191
ag183
ag142
ag180
ag144
ag145
asg296
(lp298
g174
ag67
ag68
ag191
ag183
ag139
asg52
(lp299
s.