(dp0
S'AGO'
p1
(lp2
S'AGY'
p3
aS'AHO'
p4
aS'AKO'
p5
aS'ALO'
p6
aS'ARO'
p7
aS'AVO'
p8
aS'AZO'
p9
aS'EGO'
p10
asS'SIR'
p11
(lp12
S'SIS'
p13
aS'SIS'
p14
aS'SIT'
p15
aS'SIX'
p16
aS'SUR'
p17
aS'WIR'
p18
asS'ROT'
p19
(lp20
S'ROW'
p21
aS'ROX'
p22
aS'ROY'
p23
aS'RUT'
p24
aS'SOT'
p25
aS'TOT'
p26
aS'WOT'
p27
aS'YOT'
p28
asS'YIS'
p29
(lp30
S'YUS'
p31
asg15
(lp32
g16
ag25
aS'TIT'
p33
aS'WIT'
p34
asS'ROD'
p35
(lp36
S'ROE'
p37
aS'ROG'
p38
aS'ROI'
p39
aS'ROK'
p40
aS'RON'
p41
ag19
ag21
ag22
ag23
aS'RUD'
p42
aS'SOD'
p43
aS'TOD'
p44
aS'TOD'
p45
aS'VOD'
p46
aS'WOD'
p47
asS'AGE'
p48
(lp49
g1
ag3
aS'AKE'
p50
aS'ALE'
p51
aS'AME'
p52
aS'APE'
p53
aS'ARE'
p54
aS'ASE'
p55
aS'ATE'
p56
aS'AVE'
p57
aS'AVE'
p58
aS'AWE'
p59
aS'AXE'
p60
aS'AYE'
p61
asS'RYE'
p62
(lp63
S'SYE'
p64
aS'TYE'
p65
aS'WYE'
p66
asS'EON'
p67
(lp68
S'EYN'
p69
aS'FON'
p70
aS'GON'
p71
aS'HON'
p72
aS'ION'
p73
aS'JON'
p74
aS'KON'
p75
aS'MON'
p76
aS'MON'
p77
aS'NON'
p78
aS'PON'
p79
ag41
aS'SON'
p80
aS'SON'
p81
aS'TON'
p82
aS'WON'
p83
aS'YON'
p84
asS'AGA'
p85
(lp86
g48
ag1
ag3
aS'AHA'
p87
aS'AKA'
p88
aS'AKA'
p89
aS'ALA'
p90
aS'AMA'
p91
aS'ANA'
p92
aS'ANA'
p93
aS'APA'
p94
aS'ARA'
p95
aS'ASA'
p96
aS'ATA'
p97
aS'AVA'
p98
aS'AWA'
p99
asS'SIC'
p100
(lp101
S'SID'
p102
aS'SIE'
p103
aS'SIG'
p104
aS'SIL'
p105
aS'SIM'
p106
aS'SIN'
p107
aS'SIP'
p108
ag11
aS'SIR'
p109
ag13
ag14
ag15
ag16
aS'SOC'
p110
aS'TIC'
p111
aS'VIC'
p112
asS'SIB'
p113
(lp114
g100
ag102
ag103
ag104
ag105
ag106
ag107
ag108
ag11
ag109
ag13
ag14
ag15
ag16
aS'SOB'
p115
aS'SUB'
p116
aS'TIB'
p117
asS'SIA'
p118
(lp119
g113
ag100
ag102
ag103
ag104
ag105
ag106
ag107
ag108
ag11
ag109
ag13
ag14
ag15
ag16
aS'SLA'
p120
aS'SMA'
p121
aS'SPA'
p122
aS'SWA'
p123
aS'VIA'
p124
asg108
(lp125
g11
ag109
ag13
ag14
ag15
ag16
aS'SOP'
p126
aS'SUP'
p127
aS'TIP'
p128
aS'VIP'
p129
aS'YIP'
p130
aS'ZIP'
p131
asg104
(lp132
g105
ag106
ag107
ag108
ag11
ag109
ag13
ag14
ag15
ag16
aS'SOG'
p133
aS'TIG'
p134
aS'WIG'
p135
aS'ZIG'
p136
asg3
(lp137
S'ALY'
p138
aS'AMY'
p139
aS'AMY'
p140
aS'ANY'
p141
aS'ARY'
p142
asg102
(lp143
g103
ag104
ag105
ag106
ag107
ag108
ag11
ag109
ag13
ag14
ag15
ag16
ag43
aS'SUD'
p144
aS'SYD'
p145
aS'TID'
p146
aS'WID'
p147
aS'YID'
p148
asS'PAT'
p149
(lp150
S'PAU'
p151
aS'PAW'
p152
aS'PAX'
p153
aS'PAY'
p154
aS'PET'
p155
aS'PIT'
p156
aS'POT'
p157
aS'PST'
p158
aS'PUT'
p159
aS'RAT'
p160
aS'SAT'
p161
aS'TAT'
p162
aS'TAT'
p163
aS'VAT'
p164
aS'WAT'
p165
aS'WAT'
p166
aS'YAT'
p167
aS'ZAT'
p168
asg165
(lp169
S'WAW'
p170
aS'WAX'
p171
aS'WAY'
p172
aS'WET'
p173
ag34
ag27
aS'WUT'
p174
ag167
ag168
asg38
(lp175
g39
ag40
ag41
ag19
ag21
ag22
ag23
aS'RUG'
p176
ag133
aS'TOG'
p177
aS'VOG'
p178
aS'WOG'
p179
asS'THY'
p180
(lp181
S'TOY'
p182
aS'TRY'
p183
aS'WHY'
p184
asg107
(lp185
g108
ag11
ag109
ag13
ag14
ag15
ag16
ag80
ag81
aS'SUN'
p186
aS'TIN'
p187
aS'WIN'
p188
aS'WIN'
p189
aS'YIN'
p190
aS'YIN'
p191
asg106
(lp192
g107
ag108
ag11
ag109
ag13
ag14
ag15
ag16
aS'SUM'
p193
aS'TIM'
p194
aS'VIM'
p195
aS'WIM'
p196
asS'NYE'
p197
(lp198
g62
ag64
ag65
ag66
asg162
(lp199
S'TAU'
p200
aS'TAV'
p201
aS'TAW'
p202
aS'TAX'
p203
aS'TAY'
p204
ag33
ag26
aS'TST'
p205
aS'TUT'
p206
aS'TYT'
p207
ag164
ag165
ag166
ag167
ag168
asg22
(lp208
g23
aS'RUX'
p209
aS'TOX'
p210
aS'YOX'
p211
asg201
(lp212
g202
ag203
ag204
asg202
(lp213
g203
ag204
aS'TEW'
p214
aS'TOW'
p215
ag170
aS'YAW'
p216
asS'TAP'
p217
(lp218
S'TAR'
p219
ag162
ag163
ag200
ag201
ag202
ag203
ag204
ag128
aS'TOP'
p220
aS'TUP'
p221
aS'WAP'
p222
aS'YAP'
p223
asg219
(lp224
g162
ag163
ag200
ag201
ag202
ag203
ag204
aS'TOR'
p225
aS'TOR'
p226
aS'TUR'
p227
aS'WAR'
p228
aS'YAR'
p229
aS'ZAR'
p230
asS'KYL'
p231
(lp232
S'KYU'
p233
asg152
(lp234
g153
ag154
aS'PEW'
p235
aS'POW'
p236
aS'RAW'
p237
aS'SAW'
p238
ag202
ag170
ag216
asS'PUR'
p239
(lp240
S'PUS'
p241
ag159
aS'PYR'
p242
ag17
ag227
aS'WUR'
p243
asg204
(lp244
g180
ag182
ag183
ag172
asS'WEN'
p245
(lp246
S'WER'
p247
aS'WES'
p248
ag173
aS'WEY'
p249
ag188
ag189
ag83
aS'WUN'
p250
aS'WYN'
p251
aS'YEN'
p252
aS'ZEN'
p253
asg228
(lp254
S'WAS'
p255
ag165
ag166
ag170
ag171
ag172
ag247
ag18
ag243
ag229
ag230
asS'TAD'
p256
(lp257
S'TAE'
p258
aS'TAG'
p259
aS'TAI'
p260
aS'TAI'
p261
aS'TAJ'
p262
aS'TAL'
p263
aS'TAL'
p264
aS'TAM'
p265
aS'TAN'
p266
aS'TAO'
p267
aS'TAO'
p268
ag217
ag219
ag162
ag163
ag200
ag201
ag202
ag203
ag204
aS'TED'
p269
aS'TED'
p270
ag146
ag44
ag45
aS'WAD'
p271
aS'YAD'
p272
aS'ZAD'
p273
asg258
(lp274
g259
ag260
ag261
ag262
ag263
ag264
ag265
ag266
ag267
ag268
ag217
ag219
ag162
ag163
ag200
ag201
ag202
ag203
ag204
aS'TEE'
p275
aS'THE'
p276
aS'THE'
p277
aS'TIE'
p278
aS'TOE'
p279
aS'TUE'
p280
ag65
aS'WAE'
p281
asS'MRU'
p282
(lp283
S'URU'
p284
asg259
(lp285
g260
ag261
ag262
ag263
ag264
ag265
ag266
ag267
ag268
ag217
ag219
ag162
ag163
ag200
ag201
ag202
ag203
ag204
aS'TEG'
p286
ag134
ag177
aS'TUG'
p287
aS'TYG'
p288
aS'VAG'
p289
aS'WAG'
p290
aS'ZAG'
p291
asS'TAA'
p292
(lp293
S'TAB'
p294
aS'TAB'
p295
ag256
aS'TAD'
p296
ag258
ag259
ag260
ag261
ag262
ag263
ag264
ag265
ag266
ag267
ag268
ag217
ag219
ag162
ag163
ag200
ag201
ag202
ag203
ag204
aS'TEA'
p297
aS'THA'
p298
aS'TOA'
p299
aS'TRA'
p300
aS'TUA'
p301
aS'TWA'
p302
asS'RAH'
p303
(lp304
S'RAJ'
p305
aS'RAJ'
p306
aS'RAM'
p307
aS'RAM'
p308
aS'RAN'
p309
aS'RAN'
p310
aS'RAP'
p311
aS'RAS'
p312
ag160
ag237
aS'RAX'
p313
aS'RAY'
p314
aS'RAY'
p315
aS'REH'
p316
aS'SAH'
p317
aS'WAH'
p318
aS'YAH'
p319
asg263
(lp320
g265
ag266
ag267
ag268
ag217
ag219
ag162
ag163
ag200
ag201
ag202
ag203
ag204
aS'TIL'
p321
aS'TOL'
p322
aS'VAL'
p323
asg122
(lp324
S'SPY'
p325
aS'SPY'
p326
ag123
asS'SEA'
p327
(lp328
S'SEC'
p329
aS'SEE'
p330
aS'SEG'
p331
aS'SEN'
p332
aS'SER'
p333
aS'SET'
p334
aS'SEW'
p335
aS'SEX'
p336
aS'SEY'
p337
aS'SHA'
p338
ag118
ag120
ag121
ag122
ag123
ag297
aS'WEA'
p339
aS'YEA'
p340
aS'ZEA'
p341
asg267
(lp342
g217
ag219
ag162
ag163
ag200
ag201
ag202
ag203
ag204
aS'THO'
p343
aS'THO'
p344
aS'TOO'
p345
aS'TWO'
p346
aS'YAO'
p347
asg260
(lp348
g262
ag263
ag264
ag265
ag266
ag267
ag268
ag217
ag219
ag162
ag163
ag200
ag201
ag202
ag203
ag204
aS'TJI'
p349
aS'TOI'
p350
aS'TRI'
p351
aS'TUI'
p352
aS'TWI'
p353
aS'VAI'
p354
asg233
(lp355
sS'SAG'
p356
(lp357
g317
aS'SAI'
p358
aS'SAJ'
p359
aS'SAK'
p360
aS'SAL'
p361
aS'SAL'
p362
aS'SAM'
p363
aS'SAM'
p364
aS'SAN'
p365
aS'SAN'
p366
aS'SAO'
p367
aS'SAP'
p368
aS'SAR'
p369
ag161
ag238
aS'SAX'
p370
aS'SAY'
p371
ag331
ag104
ag133
ag259
ag289
ag290
ag291
asS'FIR'
p372
(lp373
S'FIT'
p374
aS'FIX'
p375
aS'FOR'
p376
aS'FOR'
p377
aS'FUR'
p378
aS'FUR'
p379
aS'MIR'
p380
aS'PIR'
p381
ag11
ag109
ag18
asS'JIG'
p382
(lp383
S'JIM'
p384
aS'JIN'
p385
aS'JOG'
p386
aS'JUG'
p387
aS'MIG'
p388
aS'NIG'
p389
aS'PIG'
p390
aS'RIG'
p391
ag104
ag134
ag135
ag136
asS'FIP'
p392
(lp393
g372
ag374
ag375
aS'FOP'
p394
aS'GIP'
p395
aS'HIP'
p396
aS'KIP'
p397
aS'LIP'
p398
aS'NIP'
p399
aS'NIP'
p400
aS'PIP'
p401
aS'RIP'
p402
ag108
ag128
ag129
ag130
ag131
asS'GIT'
p403
(lp404
S'GOT'
p405
aS'GUT'
p406
aS'HIT'
p407
aS'KIT'
p408
aS'KIT'
p409
aS'LIT'
p410
aS'NIT'
p411
ag156
aS'RIT'
p412
ag15
ag33
ag34
asS'JIB'
p413
(lp414
g382
ag384
ag385
aS'JOB'
p415
aS'JOB'
p416
aS'MIB'
p417
aS'NIB'
p418
aS'RIB'
p419
ag113
ag117
asg374
(lp420
g375
aS'FOT'
p421
aS'FUT'
p422
ag403
ag407
ag408
ag409
ag410
ag411
ag156
ag412
ag15
ag33
ag34
asg395
(lp423
g403
aS'GUP'
p424
aS'GYP'
p425
ag396
ag397
ag398
ag399
ag400
ag401
ag402
ag108
ag128
ag129
ag130
ag131
asg385
(lp426
g74
aS'JUN'
p427
aS'KIN'
p428
aS'LIN'
p429
aS'LIN'
p430
aS'MIN'
p431
aS'PIN'
p432
ag107
ag187
ag188
ag189
ag190
ag191
asS'WRO'
p433
(lp434
S'WRY'
p435
asg375
(lp436
S'FOX'
p437
aS'MIX'
p438
aS'NIX'
p439
aS'PIX'
p440
aS'RIX'
p441
ag16
asg384
(lp442
g385
aS'KIM'
p443
aS'KIM'
p444
aS'LIM'
p445
aS'MIM'
p446
aS'NIM'
p447
aS'PIM'
p448
aS'RIM'
p449
ag106
ag194
ag195
ag196
asS'PUN'
p450
(lp451
S'PUP'
p452
ag239
ag241
ag159
aS'RUN'
p453
ag186
aS'TUN'
p454
ag250
aS'YUN'
p455
asS'GYM'
p456
(lp457
S'GYN'
p458
ag425
asS'FIB'
p459
(lp460
S'FID'
p461
aS'FIE'
p462
aS'FIG'
p463
aS'FIN'
p464
aS'FIN'
p465
ag392
ag372
ag374
ag375
aS'FOB'
p466
aS'FUB'
p467
aS'GIB'
p468
aS'GIB'
p469
ag413
ag417
ag418
ag419
ag113
ag117
asS'GIF'
p470
(lp471
S'GIG'
p472
aS'GIL'
p473
aS'GIM'
p474
aS'GIN'
p475
aS'GIO'
p476
ag395
ag403
aS'LIF'
p477
asS'GIE'
p478
(lp479
g470
ag472
ag473
ag474
ag475
ag476
ag395
ag403
aS'GUE'
p480
aS'HIE'
p481
aS'LIE'
p482
aS'PIE'
p483
aS'RIE'
p484
ag103
ag278
aS'VIE'
p485
asS'GID'
p486
(lp487
g478
ag470
ag472
ag473
ag474
ag475
ag476
ag395
ag403
aS'GOD'
p488
aS'GOD'
p489
aS'GUD'
p490
aS'LID'
p491
aS'MID'
p492
aS'NID'
p493
aS'RID'
p494
ag102
ag146
ag147
ag148
asg463
(lp495
g464
ag465
ag392
ag372
ag374
ag375
aS'FOG'
p496
ag472
ag382
ag388
ag389
ag390
ag391
ag104
ag134
ag135
ag136
asg461
(lp497
g462
ag463
ag464
ag465
ag392
ag372
ag374
ag375
aS'FOD'
p498
aS'FUD'
p499
ag486
ag491
ag492
ag493
ag494
ag102
ag146
ag147
ag148
asg462
(lp500
g463
ag464
ag465
ag392
ag372
ag374
ag375
aS'FOE'
p501
ag478
ag481
ag482
ag483
ag484
ag103
ag278
ag485
asg476
(lp502
g395
ag403
aS'GOO'
p503
aS'RIO'
p504
aS'RIO'
p505
asg475
(lp506
g476
ag395
ag403
ag71
aS'GUN'
p507
ag458
aS'HIN'
p508
ag385
ag428
ag429
ag430
ag431
ag432
ag107
ag187
ag188
ag189
ag190
ag191
asg474
(lp509
g475
ag476
ag395
ag403
aS'GUM'
p510
aS'GUM'
p511
ag456
aS'HIM'
p512
ag384
ag443
ag444
ag445
ag446
ag447
ag448
ag449
ag106
ag194
ag195
ag196
asS'BYE'
p513
(lp514
S'DYE'
p515
aS'EYE'
p516
aS'LYE'
p517
ag197
ag62
ag64
ag65
ag66
asg464
(lp518
g392
ag372
ag374
ag375
ag70
aS'FUN'
p519
ag475
ag508
ag385
ag428
ag429
ag430
ag431
ag432
ag107
ag187
ag188
ag189
ag190
ag191
asg155
(lp520
g235
ag156
ag157
ag158
ag159
aS'RET'
p521
ag334
aS'VET'
p522
ag173
aS'YET'
p523
asS'VAU'
p524
(lp525
sS'YEZ'
p526
(lp527
sS'LAM'
p528
(lp529
S'LAN'
p530
aS'LAO'
p531
aS'LAP'
p532
aS'LAR'
p533
aS'LAR'
p534
aS'LAS'
p535
aS'LAT'
p536
aS'LAW'
p537
aS'LAX'
p538
aS'LAY'
p539
aS'LAZ'
p540
ag445
aS'LUM'
p541
aS'LUM'
p542
aS'MAM'
p543
aS'NAM'
p544
aS'OAM'
p545
aS'PAM'
p546
aS'PAM'
p547
ag307
ag308
ag363
ag364
ag265
aS'YAM'
p548
asg530
(lp549
g531
ag532
ag533
ag534
ag535
ag536
ag537
ag538
ag539
ag540
aS'LEN'
p550
ag429
ag430
aS'MAN'
p551
aS'NAN'
p552
aS'NAN'
p553
aS'PAN'
p554
aS'PAN'
p555
ag309
ag310
ag365
ag366
ag266
aS'VAN'
p556
aS'VAN'
p557
aS'WAN'
p558
aS'YAN'
p559
aS'ZAN'
p560
asg87
(lp561
g4
aS'AHT'
p562
aS'AHU'
p563
ag88
ag89
ag90
ag91
ag92
ag93
ag94
ag95
ag96
ag97
ag98
ag99
aS'CHA'
p564
aS'DHA'
p565
aS'KHA'
p566
ag338
ag298
aS'WHA'
p567
asS'MAU'
p568
(lp569
S'MAW'
p570
aS'MAX'
p571
aS'MAY'
p572
aS'MAY'
p573
aS'MOU'
p574
ag282
ag151
ag200
ag524
asS'LAI'
p575
(lp576
S'LAK'
p577
aS'LAK'
p578
ag528
ag530
ag531
ag532
ag533
ag534
ag535
ag536
ag537
ag538
ag539
ag540
aS'LEI'
p579
aS'LUI'
p580
ag358
ag260
ag261
ag354
asg570
(lp581
g571
ag572
ag573
aS'MEW'
p582
aS'MOW'
p583
aS'NAW'
p584
ag152
ag237
ag238
ag202
ag170
ag216
asg577
(lp585
g528
ag530
ag531
ag532
ag533
ag534
ag535
ag536
ag537
ag538
ag539
ag540
aS'LEK'
p586
aS'NAK'
p587
aS'OAK'
p588
ag360
aS'YAK'
p589
aS'ZAK'
p590
asS'LAD'
p591
(lp592
S'LAG'
p593
ag575
aS'LAI'
p594
ag577
ag578
ag528
ag530
ag531
ag532
ag533
ag534
ag535
ag536
ag537
ag538
ag539
ag540
aS'LED'
p595
ag491
aS'LOD'
p596
aS'MAD'
p597
aS'PAD'
p598
aS'RAD'
p599
aS'SAD'
p600
ag256
ag296
ag271
ag272
ag273
asg571
(lp601
g572
ag573
ag438
aS'MUX'
p602
ag153
ag313
ag370
ag203
ag171
aS'ZAX'
p603
asg593
(lp604
g575
ag594
ag577
ag578
ag528
ag530
ag531
ag532
ag533
ag534
ag535
ag536
ag537
ag538
ag539
ag540
aS'LEG'
p605
aS'LOG'
p606
aS'LUG'
p607
aS'LUG'
p608
aS'MAG'
p609
aS'NAG'
p610
aS'RAG'
p611
ag356
ag259
ag289
ag290
ag291
asg4
(lp612
g562
ag563
ag5
ag6
ag7
ag8
ag9
aS'CHO'
p613
aS'MHO'
p614
aS'OHO'
p615
aS'PHO'
p616
aS'RHO'
p617
aS'SHO'
p618
aS'SHO'
p619
ag343
ag344
aS'WHO'
p620
asS'LAB'
p621
(lp622
S'LAC'
p623
ag591
ag593
ag575
ag594
ag577
ag578
ag528
ag530
ag531
ag532
ag533
ag534
ag535
ag536
ag537
ag538
ag539
ag540
aS'LOB'
p624
aS'MAB'
p625
aS'NAB'
p626
aS'RAB'
p627
aS'RAB'
p628
aS'SAB'
p629
ag294
ag295
aS'WAB'
p630
asg623
(lp631
g591
ag593
ag575
ag594
ag577
ag578
ag528
ag530
ag531
ag532
ag533
ag534
ag535
ag536
ag537
ag538
ag539
ag540
aS'LUC'
p632
aS'MAC'
p633
aS'MAC'
p634
aS'PAC'
p635
aS'SAC'
p636
aS'SAC'
p637
aS'WAC'
p638
aS'ZAC'
p639
asS'PUD'
p640
(lp641
S'PUG'
p642
aS'PUL'
p643
ag450
ag452
ag239
ag241
ag159
ag42
ag144
aS'WUD'
p644
asg633
(lp645
g597
aS'MAE'
p646
ag609
aS'MAH'
p647
aS'MAL'
p648
ag543
ag551
aS'MAO'
p649
aS'MAP'
p650
aS'MAR'
p651
aS'MAR'
p652
aS'MAS'
p653
aS'MAT'
p654
aS'MAT'
p655
ag568
ag570
ag571
ag572
ag573
ag635
ag636
ag637
ag638
ag639
asg625
(lp656
g633
ag634
ag597
ag646
ag609
ag647
ag648
ag543
ag551
ag649
ag650
ag651
ag652
ag653
ag654
ag655
ag568
ag570
ag571
ag572
ag573
ag417
aS'MOB'
p657
ag626
ag627
ag628
ag629
ag294
ag295
ag630
asg538
(lp658
g539
ag540
aS'LEX'
p659
aS'LOX'
p660
aS'LUX'
p661
ag571
ag153
ag313
ag370
ag203
ag171
ag603
asg539
(lp662
g540
aS'LEY'
p663
aS'LOY'
p664
ag572
ag573
aS'NAY'
p665
ag154
ag314
ag315
ag371
ag204
ag172
asg562
(lp666
g563
aS'AIT'
p667
aS'ALT'
p668
aS'AMT'
p669
aS'ANT'
p670
aS'APT'
p671
aS'ART'
p672
aS'ART'
p673
aS'AST'
p674
asg563
(lp675
S'AKU'
p676
aS'ARU'
p677
aS'AYU'
p678
aS'DHU'
p679
aS'KHU'
p680
aS'PHU'
p681
aS'SHU'
p682
asg536
(lp683
g537
ag538
ag539
ag540
aS'LET'
p684
ag410
aS'LOT'
p685
aS'LOT'
p686
aS'LUT'
p687
ag654
ag655
aS'NAT'
p688
aS'OAT'
p689
ag149
aS'PAT'
p690
ag160
ag161
ag162
ag163
ag164
ag165
ag166
ag167
ag168
asg647
(lp691
g648
ag543
ag551
ag649
ag650
ag651
ag652
ag653
ag654
ag655
ag568
ag570
ag571
ag572
ag573
aS'PAH'
p692
ag303
ag317
ag318
ag319
asg537
(lp693
g538
ag539
ag540
aS'LEW'
p694
aS'LEW'
p695
aS'LOW'
p696
ag570
ag584
ag152
ag237
ag238
ag202
ag170
ag216
asg532
(lp697
g533
ag534
ag535
ag536
ag537
ag538
ag539
ag540
ag398
aS'LOP'
p698
ag650
aS'NAP'
p699
aS'PAP'
p700
ag311
ag368
ag217
ag222
ag223
asg648
(lp701
g543
ag551
ag649
ag650
ag651
ag652
ag653
ag654
ag655
ag568
ag570
ag571
ag572
ag573
aS'MEL'
p702
aS'MIL'
p703
aS'MIL'
p704
aS'PAL'
p705
ag361
ag362
ag263
ag264
ag323
asg533
(lp706
g535
ag536
ag537
ag538
ag539
ag540
aS'LER'
p707
aS'LUR'
p708
ag651
ag652
aS'NAR'
p709
aS'OAR'
p710
aS'PAR'
p711
ag369
ag219
ag228
ag229
ag230
asg535
(lp712
g536
ag537
ag538
ag539
ag540
aS'LES'
p713
aS'LIS'
p714
aS'LYS'
p715
ag653
ag312
aS'VAS'
p716
ag255
aS'YAS'
p717
asS'ULL'
p718
(lp719
S'ULU'
p720
asg642
(lp721
g643
ag450
ag452
ag239
ag241
ag159
ag176
ag287
aS'VUG'
p722
asS'BEN'
p723
(lp724
S'BER'
p725
aS'BES'
p726
aS'BET'
p727
aS'BEY'
p728
aS'BIN'
p729
aS'BON'
p730
aS'BON'
p731
aS'BUN'
p732
aS'DEN'
p733
aS'FEN'
p734
aS'GEN'
p735
aS'HEN'
p736
aS'KEN'
p737
aS'KEN'
p738
ag550
aS'MEN'
p739
aS'PEN'
p740
ag332
aS'TEN'
p741
ag245
ag252
ag253
asg103
(lp742
g104
ag105
ag106
ag107
ag108
ag11
ag109
ag13
ag14
ag15
ag16
aS'SOE'
p743
aS'SUE'
p744
aS'SUE'
p745
ag64
ag278
ag485
asS'BEL'
p746
(lp747
g723
aS'BEN'
p748
ag725
ag726
ag727
ag728
aS'DEL'
p749
aS'EEL'
p750
aS'GEL'
p751
ag702
aS'REL'
p752
aS'ZEL'
p753
asg490
(lp754
g480
aS'GUL'
p755
ag510
ag511
ag507
ag424
aS'GUR'
p756
aS'GUS'
p757
ag406
aS'GUY'
p758
aS'GUY'
p759
aS'GUZ'
p760
aS'HUD'
p761
aS'JUD'
p762
aS'MUD'
p763
ag640
ag42
ag144
ag644
asg660
(lp764
g664
ag661
aS'POX'
p765
ag22
ag210
ag211
asS'EVA'
p766
(lp767
S'EVE'
p768
aS'EVE'
p769
aS'IVA'
p770
aS'OVA'
p771
aS'OVA'
p772
aS'UVA'
p773
asS'BEA'
p774
(lp775
S'BED'
p776
aS'BEE'
p777
aS'BEE'
p778
aS'BEG'
p779
ag746
aS'BEL'
p780
ag723
ag748
ag725
ag726
ag727
ag728
aS'BOA'
p781
aS'BRA'
p782
aS'KEA'
p783
aS'LEA'
p784
aS'LEA'
p785
aS'NEA'
p786
aS'PEA'
p787
aS'REA'
p788
ag327
ag297
ag339
ag340
ag341
asg768
(lp789
S'EWE'
p790
aS'EWE'
p791
ag516
asg776
(lp792
g777
ag778
ag779
ag746
ag780
ag723
ag748
ag725
ag726
ag727
ag728
aS'BID'
p793
aS'BOD'
p794
aS'BUD'
p795
aS'BUD'
p796
aS'FED'
p797
aS'GED'
p798
aS'GED'
p799
aS'JED'
p800
aS'KED'
p801
ag595
aS'NED'
p802
aS'PED'
p803
aS'RED'
p804
aS'RED'
p805
ag269
ag270
aS'WED'
p806
aS'YED'
p807
aS'ZED'
p808
asg777
(lp809
g779
ag746
ag780
ag723
ag748
ag725
ag726
ag727
ag728
ag513
aS'CEE'
p810
aS'DEE'
p811
aS'FEE'
p812
aS'GEE'
p813
aS'GEE'
p814
aS'KEE'
p815
aS'LEE'
p816
aS'LEE'
p817
aS'NEE'
p818
aS'PEE'
p819
aS'REE'
p820
aS'REE'
p821
ag330
ag275
aS'VEE'
p822
aS'WEE'
p823
aS'YEE'
p824
aS'ZEE'
p825
asg757
(lp826
g406
ag758
ag759
ag760
aS'MUS'
p827
ag241
aS'RUS'
p828
aS'SUS'
p829
ag31
asg756
(lp830
g757
ag406
ag758
ag759
ag760
aS'JUR'
p831
ag708
aS'OUR'
p832
ag239
ag17
ag227
ag243
asg728
(lp833
S'BOY'
p834
aS'BUY'
p835
aS'DEY'
p836
aS'FEY'
p837
aS'GEY'
p838
aS'HEY'
p839
aS'KEY'
p840
ag663
ag337
ag249
asg42
(lp841
S'RUE'
p842
ag176
aS'RUM'
p843
aS'RUM'
p844
ag453
ag828
ag24
ag209
ag144
ag644
asg83
(lp845
S'WOO'
p846
aS'WOP'
p847
ag27
aS'WOW'
p848
aS'WOY'
p849
ag250
ag251
ag84
asg406
(lp850
g758
ag759
ag760
aS'HUT'
p851
aS'JUT'
p852
ag687
aS'NUT'
p853
aS'OUT'
p854
ag159
ag24
ag206
ag174
asg725
(lp855
g726
ag727
ag728
aS'BOR'
p856
aS'BUR'
p857
aS'EER'
p858
aS'GER'
p859
aS'HER'
p860
aS'KER'
p861
ag707
aS'MER'
p862
aS'OER'
p863
aS'PER'
p864
aS'PER'
p865
ag333
ag247
aS'YER'
p866
aS'ZER'
p867
asg726
(lp868
g727
ag728
aS'BIS'
p869
aS'BOS'
p870
aS'BUS'
p871
aS'GES'
p872
ag713
aS'MES'
p873
aS'OES'
p874
aS'PES'
p875
ag248
aS'YES'
p876
asg758
(lp877
g760
asg727
(lp878
g728
aS'BIT'
p879
aS'BOT'
p880
aS'BUT'
p881
aS'FET'
p882
aS'GET'
p883
aS'HET'
p884
aS'JET'
p885
aS'KET'
p886
ag684
aS'MET'
p887
aS'NET'
p888
aS'NET'
p889
ag155
ag521
ag334
ag522
ag173
ag523
asS'OXY'
p890
(lp891
sg761
(lp892
S'HUE'
p893
aS'HUG'
p894
aS'HUH'
p895
aS'HUI'
p896
aS'HUK'
p897
aS'HUM'
p898
aS'HUN'
p899
aS'HUP'
p900
ag851
ag762
ag763
ag640
ag42
ag144
ag644
asg893
(lp901
g894
ag895
ag896
ag897
ag898
ag899
ag900
ag851
aS'LUE'
p902
ag842
ag744
ag745
ag280
asg894
(lp903
g895
ag896
ag897
ag898
ag899
ag900
ag851
ag387
ag607
ag608
aS'MUG'
p904
ag642
ag176
ag287
ag722
asS'HUB'
p905
(lp906
g761
ag893
ag894
ag895
ag896
ag897
ag898
ag899
ag900
ag851
aS'NUB'
p907
aS'PUB'
p908
aS'RUB'
p909
ag116
aS'TUB'
p910
asS'WIZ'
p911
(lp912
sg898
(lp913
g899
ag900
ag851
ag541
ag542
aS'MUM'
p914
ag843
ag844
ag193
aS'TUM'
p915
aS'VUM'
p916
asg899
(lp917
g900
ag851
ag427
aS'MUN'
p918
aS'NUN'
p919
ag450
ag453
ag186
ag454
ag250
ag455
asg556
(lp920
g716
ag164
ag524
ag558
ag559
ag560
asg895
(lp921
g896
ag897
ag898
ag899
ag900
ag851
aS'YUH'
p922
asg896
(lp923
g897
ag898
ag899
ag900
ag851
aS'KUI'
p924
ag580
aS'SUI'
p925
ag352
asS'URA'
p926
(lp927
S'URD'
p928
aS'URE'
p929
aS'URF'
p930
aS'URI'
p931
aS'URN'
p932
aS'URO'
p933
aS'URS'
p934
ag284
aS'UTA'
p935
aS'UTA'
p936
ag773
asg897
(lp937
g898
ag899
ag900
ag851
aS'SUK'
p938
asg851
(lp939
g852
ag687
ag853
ag854
ag159
ag24
ag206
ag174
asg900
(lp940
g851
aS'HYP'
p941
ag452
ag127
ag221
aS'WUP'
p942
asg27
(lp943
g848
ag849
ag174
ag28
asg773
(lp944
sg105
(lp945
g106
ag107
ag108
ag11
ag109
ag13
ag14
ag15
ag16
aS'SOL'
p946
aS'SOL'
p947
ag321
asg848
(lp948
g849
aS'YOW'
p949
asg743
(lp950
g133
aS'SOH'
p951
aS'SOK'
p952
ag946
ag947
ag80
ag81
ag126
ag25
aS'SOU'
p953
aS'SOV'
p954
aS'SOW'
p955
aS'SOY'
p956
ag744
ag745
ag64
ag279
aS'VOE'
p957
aS'WOE'
p958
aS'YOE'
p959
asS'GRR'
p960
(lp961
g756
asg361
(lp962
g363
ag364
ag365
ag366
ag367
ag368
ag369
ag161
ag238
ag370
ag371
ag105
ag946
ag947
ag263
ag264
ag323
asg325
(lp963
S'STY'
p964
asg159
(lp965
g24
ag206
ag174
asS'BLO'
p966
(lp967
S'BOO'
p968
aS'FLO'
p969
asS'GRA'
p970
(lp971
g960
aS'IRA'
p972
aS'KRA'
p973
aS'KRA'
p974
aS'ORA'
p975
ag300
ag926
asg133
(lp976
g951
ag952
ag946
ag947
ag80
ag81
ag126
ag25
ag953
ag954
ag955
ag956
ag177
ag178
ag179
asg78
(lp977
S'NOR'
p978
aS'NOT'
p979
aS'NOU'
p980
aS'NOW'
p981
aS'NOY'
p982
ag919
ag79
ag41
ag80
ag81
ag82
ag83
ag84
asg441
(lp983
g22
ag209
ag16
asS'NOD'
p984
(lp985
S'NOG'
p986
ag78
ag978
ag979
ag980
ag981
ag982
aS'POD'
p987
ag35
aS'ROD'
p988
ag43
ag44
ag45
ag46
ag47
asS'ORB'
p989
(lp990
S'ORC'
p991
aS'ORE'
p992
aS'ORF'
p993
aS'ORT'
p994
aS'ORY'
p995
asg986
(lp996
g78
ag978
ag979
ag980
ag981
ag982
ag38
ag133
ag177
ag178
ag179
asS'NOA'
p997
(lp998
S'NOB'
p999
ag984
ag986
ag78
ag978
ag979
ag980
ag981
ag982
aS'POA'
p1000
ag299
aS'ZOA'
p1001
aS'ZOA'
p1002
asg999
(lp1003
g984
ag986
ag78
ag978
ag979
ag980
ag981
ag982
ag907
aS'POB'
p1004
aS'ROB'
p1005
aS'ROB'
p1006
ag115
aS'WOB'
p1007
asS'OKA'
p1008
(lp1009
S'OKI'
p1010
aS'ONA'
p1011
aS'ONA'
p1012
ag975
ag771
ag772
asS'INN'
p1013
(lp1014
S'INO'
p1015
ag73
asg1015
(lp1016
S'ISO'
p1017
aS'ITO'
p1018
aS'IYO'
p1019
asg982
(lp1020
S'POY'
p1021
ag23
ag956
ag182
ag849
aS'YOY'
p1022
asS'INK'
p1023
(lp1024
g1013
ag1015
aS'IRK'
p1025
asS'IND'
p1026
(lp1027
S'ING'
p1028
aS'ING'
p1029
ag1023
ag1013
ag1015
asg980
(lp1030
g981
ag982
ag953
aS'TOU'
p1031
aS'YOU'
p1032
asg1028
(lp1033
g1023
ag1013
ag1015
asg80
(lp1034
g126
ag25
ag953
ag954
ag955
ag956
ag186
ag82
ag83
ag84
asg978
(lp1035
g979
ag980
ag981
ag982
ag225
ag226
aS'YOR'
p1036
asS'REX'
p1037
(lp1038
g441
ag22
ag209
ag336
aS'VEX'
p1039
aS'YEX'
p1040
asS'TOM'
p1041
(lp1042
g82
ag345
ag220
ag225
ag226
ag26
ag1031
ag215
ag210
ag182
ag915
aS'YOM'
p1043
asS'DON'
p1044
(lp1045
S'DOP'
p1046
aS'DOR'
p1047
aS'DOR'
p1048
aS'DOS'
p1049
aS'DOT'
p1050
aS'DOT'
p1051
aS'DOW'
p1052
aS'DUN'
p1053
ag67
ag70
ag71
ag72
ag73
ag74
ag75
ag76
ag77
ag78
ag79
ag41
ag80
ag81
ag82
ag83
ag84
asS'DOL'
p1054
(lp1055
S'DOM'
p1056
ag1044
aS'DON'
p1057
ag1046
ag1047
ag1048
ag1049
ag1050
ag1051
ag1052
aS'GOL'
p1058
aS'KOL'
p1059
aS'POL'
p1060
ag946
ag947
ag322
aS'VOL'
p1061
asg1056
(lp1062
g1044
ag1057
ag1046
ag1047
ag1048
ag1049
ag1050
ag1051
ag1052
aS'DUM'
p1063
aS'POM'
p1064
ag1041
ag1043
asS'DOB'
p1065
(lp1066
S'DOC'
p1067
aS'DOD'
p1068
aS'DOE'
p1069
aS'DOG'
p1070
ag1054
ag1056
ag1044
ag1057
ag1046
ag1047
ag1048
ag1049
ag1050
ag1051
ag1052
aS'DUB'
p1071
ag466
aS'GOB'
p1072
aS'HOB'
p1073
ag415
ag416
aS'KOB'
p1074
ag624
ag657
ag999
ag1004
ag1005
ag1006
ag115
ag1007
asg1067
(lp1075
g1068
ag1069
ag1070
ag1054
ag1056
ag1044
ag1057
ag1046
ag1047
ag1048
ag1049
ag1050
ag1051
ag1052
aS'ROC'
p1076
ag110
asS'EKE'
p1077
(lp1078
S'EME'
p1079
aS'ERE'
p1080
ag768
ag769
ag790
ag791
ag516
aS'IKE'
p1081
aS'UKE'
p1082
asS'REV'
p1083
(lp1084
g1037
aS'REX'
p1085
asg1070
(lp1086
g1054
ag1056
ag1044
ag1057
ag1046
ag1047
ag1048
ag1049
ag1050
ag1051
ag1052
aS'DUG'
p1087
ag496
aS'GOG'
p1088
aS'HOG'
p1089
ag386
ag606
aS'MOG'
p1090
ag986
ag38
ag133
ag177
ag178
ag179
asg1068
(lp1091
g1069
ag1070
ag1054
ag1056
ag1044
ag1057
ag1046
ag1047
ag1048
ag1049
ag1050
ag1051
ag1052
aS'DUD'
p1092
ag498
ag488
ag489
aS'HOD'
p1093
ag596
aS'MOD'
p1094
ag984
ag987
ag35
ag988
ag43
ag44
ag45
ag46
ag47
asg1069
(lp1095
g1070
ag1054
ag1056
ag1044
ag1057
ag1046
ag1047
ag1048
ag1049
ag1050
ag1051
ag1052
aS'DUE'
p1096
ag515
ag501
aS'HOE'
p1097
aS'JOE'
p1098
aS'JOE'
p1099
aS'MOE'
p1100
aS'POE'
p1101
ag37
ag743
ag279
ag957
ag958
ag959
asg958
(lp1102
g179
ag83
ag846
ag847
ag27
ag848
ag849
ag66
ag959
asg316
(lp1103
g752
aS'REP'
p1104
ag521
ag1083
ag1037
ag1085
asg5
(lp1105
g676
ag6
ag7
ag8
ag9
asg752
(lp1106
g1104
ag521
ag1083
ag1037
ag1085
ag753
asg47
(lp1107
g958
ag179
ag83
ag846
ag847
ag27
ag848
ag849
ag644
asg1047
(lp1108
g1049
ag1050
ag1051
ag1052
ag376
ag377
aS'GOR'
p1109
aS'GOR'
p1110
aS'KOR'
p1111
aS'MOR'
p1112
ag978
ag225
ag226
ag1036
asg1049
(lp1113
g1050
ag1051
ag1052
aS'GOS'
p1114
aS'JOS'
p1115
aS'KOS'
p1116
asg1046
(lp1117
g1047
ag1048
ag1049
ag1050
ag1051
ag1052
aS'DUP'
p1118
ag394
aS'HOP'
p1119
aS'KOP'
p1120
ag698
aS'MOP'
p1121
aS'POP'
p1122
aS'POP'
p1123
ag126
ag220
ag847
asg788
(lp1124
S'REB'
p1125
ag804
ag805
ag820
ag821
aS'REF'
p1126
aS'REG'
p1127
ag316
ag752
ag1104
ag521
ag1083
ag1037
ag1085
aS'RIA'
p1128
aS'RUA'
p1129
ag327
ag297
ag339
ag340
ag341
asg1126
(lp1130
g1127
ag316
ag752
ag1104
ag521
ag1083
ag1037
ag1085
asg1052
(lp1131
S'FOW'
p1132
aS'HOW'
p1133
aS'JOW'
p1134
ag696
ag583
ag981
ag236
ag21
ag955
ag215
aS'VOW'
p1135
ag848
ag949
asg50
(lp1136
g5
ag676
ag51
ag52
ag53
ag54
ag55
ag56
ag57
ag58
ag59
ag60
ag61
ag1077
ag1081
ag1082
asg1059
(lp1137
g75
ag1120
ag1111
ag1116
aS'KOU'
p1138
ag231
ag1060
ag946
ag947
ag322
ag1061
asg134
(lp1139
g321
ag194
ag187
ag128
ag33
ag177
ag287
ag288
ag135
ag136
asg1087
(lp1140
g1063
ag1053
aS'DUO'
p1141
ag1118
aS'DUX'
p1142
ag894
ag387
ag607
ag608
ag904
ag642
ag176
ag287
ag722
asS'BAP'
p1143
(lp1144
S'BAR'
p1145
aS'BAS'
p1146
aS'BAT'
p1147
aS'BAT'
p1148
aS'BAW'
p1149
aS'BAY'
p1150
aS'BOP'
p1151
aS'CAP'
p1152
aS'DAP'
p1153
aS'GAP'
p1154
aS'HAP'
p1155
aS'JAP'
p1156
aS'JAP'
p1157
ag532
ag650
ag699
ag700
ag311
ag368
ag217
ag222
ag223
asg504
(lp1158
g402
ag412
ag441
asS'IBO'
p1159
(lp1160
S'IDO'
p1161
aS'IJO'
p1162
ag1015
ag1017
ag1018
ag1019
asS'OUF'
p1163
(lp1164
g832
ag854
asg225
(lp1165
g26
ag1031
ag215
ag210
ag182
ag227
ag1036
asg521
(lp1166
g1083
ag1037
ag1085
ag412
ag19
ag24
ag334
ag522
ag173
ag523
asg449
(lp1167
g504
ag505
ag402
ag412
ag441
ag843
ag844
ag106
ag194
ag195
ag196
asg667
(lp1168
S'AIX'
p1169
ag668
ag669
ag670
ag671
ag672
ag673
ag674
ag879
aS'CIT'
p1170
aS'DIT'
p1171
ag374
ag403
ag407
ag408
ag409
ag410
ag411
ag156
ag412
ag15
ag33
ag34
asg832
(lp1172
g854
ag239
ag17
ag227
ag243
asg618
(lp1173
g682
aS'SHY'
p1174
ag343
ag344
ag620
asg121
(lp1175
g122
ag123
asg184
(lp1176
g849
ag435
asg854
(lp1177
g159
ag24
ag206
ag174
asg1120
(lp1178
g1111
ag1116
ag1138
ag698
ag1121
ag1122
ag1123
ag126
ag220
ag847
asg148
(lp1179
g190
ag191
ag130
ag29
asg522
(lp1180
g1039
ag173
ag523
asg1074
(lp1181
S'KOI'
p1182
ag1059
ag75
ag1120
ag1111
ag1116
ag1138
ag624
ag657
ag999
ag1004
ag1005
ag1006
ag115
ag1007
asg932
(lp1183
g933
ag934
ag284
asS'JEW'
p1184
(lp1185
g1134
ag694
ag695
ag582
aS'NEW'
p1186
ag235
ag335
ag214
aS'YEW'
p1187
asg885
(lp1188
g1184
aS'JOT'
p1189
ag852
ag886
ag684
ag887
ag888
ag889
ag155
ag521
ag334
ag522
ag173
ag523
asS'FRO'
p1190
(lp1191
S'FRY'
p1192
aS'PRO'
p1193
ag933
ag433
asS'AUH'
p1194
(lp1195
S'AUK'
p1196
aS'AUK'
p1197
aS'AUM'
p1198
aS'AUS'
p1199
ag895
ag922
asg1196
(lp1200
g1198
ag1199
ag897
ag938
asg190
(lp1201
g130
ag29
ag84
ag455
asg1198
(lp1202
g1199
aS'BUM'
p1203
aS'CUM'
p1204
ag1063
aS'FUM'
p1205
ag510
ag511
ag898
ag541
ag542
ag914
ag843
ag844
ag193
ag915
ag916
asg1039
(lp1206
g1040
asg215
(lp1207
g210
ag182
ag1135
ag848
ag949
asg1199
(lp1208
g871
ag757
ag827
ag241
ag828
ag829
ag31
asg266
(lp1209
g267
ag268
ag217
ag219
ag162
ag163
ag200
ag201
ag202
ag203
ag204
ag741
ag187
ag82
ag454
ag556
ag557
ag558
ag559
ag560
asS'JEF'
p1210
(lp1211
S'JEM'
p1212
ag885
ag1184
aS'KEF'
p1213
aS'NEF'
p1214
ag1126
asg26
(lp1215
g1031
ag215
ag210
ag182
ag205
ag206
ag207
ag27
ag28
asg800
(lp1216
g1210
ag1212
ag885
ag1184
ag762
ag801
ag595
ag802
ag803
ag804
ag805
ag269
ag270
ag806
ag807
ag808
asg265
(lp1217
g266
ag267
ag268
ag217
ag219
ag162
ag163
ag200
ag201
ag202
ag203
ag204
ag194
ag1041
ag915
ag548
asS'MRS'
p1218
(lp1219
g282
ag827
ag934
asg1150
(lp1220
g728
ag834
ag835
aS'CAY'
p1221
aS'DAY'
p1222
aS'FAY'
p1223
aS'FAY'
p1224
aS'GAY'
p1225
aS'HAY'
p1226
aS'JAY'
p1227
aS'JAY'
p1228
aS'KAY'
p1229
aS'KAY'
p1230
ag539
ag572
ag573
ag665
ag154
ag314
ag315
ag371
ag204
ag172
asg494
(lp1231
g484
ag391
aS'RIK'
p1232
ag449
ag504
ag505
ag402
ag412
ag441
ag35
ag988
ag42
ag102
ag146
ag147
ag148
asg1212
(lp1233
g885
ag1184
ag384
aS'MEM'
p1234
aS'WEM'
p1235
asS'ALN'
p1236
(lp1237
g6
aS'ALP'
p1238
ag668
ag138
aS'ANN'
p1239
aS'ANN'
p1240
aS'ARN'
p1241
aS'AWN'
p1242
asg6
(lp1243
g1238
ag668
ag138
ag7
ag8
ag9
ag966
ag969
asS'ALL'
p1244
(lp1245
g1236
ag6
ag1238
ag668
ag138
aS'AWL'
p1246
aS'ELL'
p1247
aS'ILL'
p1248
ag718
asg484
(lp1249
g391
ag1232
ag449
ag504
ag505
ag402
ag412
ag441
ag37
ag842
ag62
ag103
ag278
ag485
asS'ALK'
p1250
(lp1251
g1244
ag1236
ag6
ag1238
ag668
ag138
aS'ARK'
p1252
aS'ASK'
p1253
ag1196
ag1197
aS'ELK'
p1254
aS'ILK'
p1255
asS'BAG'
p1256
(lp1257
S'BAH'
p1258
aS'BAL'
p1259
aS'BAL'
p1260
aS'BAM'
p1261
aS'BAN'
p1262
aS'BAN'
p1263
ag1143
ag1145
ag1146
ag1147
ag1148
ag1149
ag1150
ag779
aS'BIG'
p1264
aS'BOG'
p1265
aS'BUG'
p1266
aS'CAG'
p1267
aS'DAG'
p1268
aS'FAG'
p1269
aS'GAG'
p1270
aS'HAG'
p1271
aS'JAG'
p1272
ag593
ag609
ag610
ag611
ag356
ag259
ag289
ag290
ag291
asS'ALF'
p1273
(lp1274
g1250
ag1244
ag1236
ag6
ag1238
ag668
ag138
aS'ELF'
p1275
asS'EDH'
p1276
(lp1277
S'EDO'
p1278
asg51
(lp1279
g1273
aS'ALF'
p1280
ag1250
ag1244
ag1236
ag6
ag1238
ag668
ag138
ag52
ag53
ag54
ag55
ag56
ag57
ag58
ag59
ag60
ag61
aS'OLE'
p1281
aS'ULE'
p1282
asS'ALB'
p1283
(lp1284
g51
ag1273
ag1280
ag1250
ag1244
ag1236
ag6
ag1238
ag668
ag138
aS'ELB'
p1285
asg1278
(lp1286
g10
ag1161
aS'UDO'
p1287
asg908
(lp1288
g640
ag642
ag643
ag450
ag452
ag239
ag241
ag159
ag909
ag116
ag910
asg90
(lp1289
g1283
aS'ALB'
p1290
ag51
ag1273
ag1280
ag1250
ag1244
ag1236
ag6
ag1238
ag668
ag138
ag91
ag92
ag93
ag94
ag95
ag96
ag97
ag98
ag99
aS'ILA'
p1291
ag120
aS'ULA'
p1292
asS'QUA'
p1293
(lp1294
S'QUO'
p1295
ag1129
ag301
asS'NTH'
p1296
(lp1297
sS'BAE'
p1298
(lp1299
g1256
ag1258
ag1259
ag1260
ag1261
ag1262
ag1263
ag1143
ag1145
ag1146
ag1147
ag1148
ag1149
ag1150
ag777
ag778
ag513
aS'DAE'
p1300
aS'FAE'
p1301
ag646
aS'NAE'
p1302
ag258
ag281
asS'MOT'
p1303
(lp1304
g574
ag583
aS'MOY'
p1305
ag979
ag157
ag19
ag25
ag26
ag27
ag28
asg138
(lp1306
g139
ag140
ag141
ag142
aS'CLY'
p1307
aS'FLY'
p1308
aS'PLY'
p1309
aS'SLY'
p1310
asg993
(lp1311
g994
ag995
ag1163
ag930
asg82
(lp1312
g345
ag220
ag225
ag226
ag26
ag1031
ag215
ag210
ag182
ag454
ag83
ag84
asg668
(lp1313
g138
ag669
ag670
ag671
ag672
ag673
ag674
aS'ELT'
p1314
asg992
(lp1315
g993
ag994
ag995
aS'OSE'
p1316
aS'OWE'
p1317
ag929
asg1111
(lp1318
g1116
ag1138
ag1112
ag978
ag225
ag226
ag1036
asg991
(lp1319
g992
ag993
ag994
ag995
aS'OSC'
p1320
asg1238
(lp1321
g668
ag138
aS'ASP'
p1322
asS'CAN'
p1323
(lp1324
g1152
aS'CAR'
p1325
aS'CAT'
p1326
aS'CAT'
p1327
aS'CAW'
p1328
ag1221
aS'CON'
p1329
aS'DAN'
p1330
aS'DAN'
p1331
aS'EAN'
p1332
aS'FAN'
p1333
aS'FAN'
p1334
aS'GAN'
p1335
aS'HAN'
p1336
aS'IAN'
p1337
aS'JAN'
p1338
aS'KAN'
p1339
ag530
ag551
ag552
ag553
ag554
ag555
ag309
ag310
ag365
ag366
ag266
ag556
ag557
ag558
ag559
ag560
asg1182
(lp1340
g1059
ag75
ag1120
ag1111
ag1116
ag1138
ag924
aS'MOI'
p1341
aS'POI'
p1342
ag39
ag350
aS'YOI'
p1343
asg1149
(lp1344
g1150
aS'BOW'
p1345
ag1328
aS'DAW'
p1346
aS'GAW'
p1347
aS'HAW'
p1348
aS'JAW'
p1349
aS'KAW'
p1350
ag537
ag570
ag584
ag152
ag237
ag238
ag202
ag170
ag216
asg1221
(lp1351
g1307
aS'COY'
p1352
aS'CRY'
p1353
ag1222
ag1223
ag1224
ag1225
ag1226
ag1227
ag1228
ag1229
ag1230
ag539
ag572
ag573
ag665
ag154
ag314
ag315
ag371
ag204
ag172
asg182
(lp1354
g183
ag849
ag1022
asg1145
(lp1355
g1146
ag1147
ag1148
ag1149
ag1150
ag725
ag856
ag857
ag1325
aS'DAR'
p1356
aS'EAR'
p1357
aS'FAR'
p1358
aS'GAR'
p1359
aS'JAR'
p1360
ag533
ag534
ag651
ag652
ag709
ag710
ag711
ag369
ag219
ag228
ag229
ag230
asg1146
(lp1361
g1147
ag1148
ag1149
ag1150
ag726
ag869
ag870
ag871
aS'DAS'
p1362
aS'GAS'
p1363
ag535
ag653
ag312
ag716
ag255
ag717
asS'ERR'
p1364
(lp1365
S'ERS'
p1366
ag960
asg1366
(lp1367
S'ESS'
p1368
ag1218
ag934
asS'KOA'
p1369
(lp1370
g1074
ag1182
ag1059
ag75
ag1120
ag1111
ag1116
ag1138
ag973
ag974
aS'KUA'
p1371
aS'LOA'
p1372
aS'LOA'
p1373
ag997
ag1000
ag299
ag1001
ag1002
asg1325
(lp1374
g1326
ag1327
ag1328
ag1221
aS'COR'
p1375
aS'CUR'
p1376
ag1356
ag1357
ag1358
ag1359
ag1360
ag533
ag534
ag651
ag652
ag709
ag710
ag711
ag369
ag219
ag228
ag229
ag230
asg220
(lp1377
g225
ag226
ag26
ag1031
ag215
ag210
ag182
ag221
ag847
asg1152
(lp1378
g1325
ag1326
ag1327
ag1328
ag1221
aS'CEP'
p1379
aS'COP'
p1380
aS'CUP'
p1381
aS'CYP'
p1382
ag1153
ag1154
ag1155
ag1156
ag1157
ag532
ag650
ag699
ag700
ag311
ag368
ag217
ag222
ag223
asg1328
(lp1383
g1221
aS'COW'
p1384
ag1346
ag1347
ag1348
ag1349
ag1350
ag537
ag570
ag584
ag152
ag237
ag238
ag202
ag170
ag216
asS'RIC'
p1385
(lp1386
g494
ag484
ag391
ag1232
ag449
ag504
ag505
ag402
ag412
ag441
ag1076
ag100
ag111
ag112
asg1147
(lp1387
g1149
ag1150
ag727
ag879
ag880
ag881
ag1326
ag1327
aS'EAT'
p1388
aS'FAT'
p1389
aS'GAT'
p1390
aS'HAT'
p1391
aS'JAT'
p1392
aS'KAT'
p1393
ag536
ag654
ag655
ag688
ag689
ag149
ag690
ag160
ag161
ag162
ag163
ag164
ag165
ag166
ag167
ag168
asg1326
(lp1394
g1328
ag1221
ag1170
aS'COT'
p1395
aS'CUT'
p1396
ag1388
ag1389
ag1390
ag1391
ag1392
ag1393
ag536
ag654
ag655
ag688
ag689
ag149
ag690
ag160
ag161
ag162
ag163
ag164
ag165
ag166
ag167
ag168
asS'ERD'
p1397
(lp1398
g1080
aS'ERG'
p1399
ag1364
ag1366
ag928
asg1080
(lp1400
g1399
ag1364
ag1366
ag768
ag769
ag790
ag791
ag516
aS'IRE'
p1401
ag992
ag929
asS'BAD'
p1402
(lp1403
g1298
ag1256
ag1258
ag1259
ag1260
ag1261
ag1262
ag1263
ag1143
ag1145
ag1146
ag1147
ag1148
ag1149
ag1150
ag776
ag793
ag794
ag795
ag796
aS'CAD'
p1404
aS'DAD'
p1405
aS'FAD'
p1406
aS'GAD'
p1407
aS'GAD'
p1408
aS'HAD'
p1409
ag591
ag597
ag598
ag599
ag600
ag256
ag296
ag271
ag272
ag273
asg1399
(lp1410
g1364
ag1366
asS'BAB'
p1411
(lp1412
S'BAC'
p1413
ag1402
ag1298
ag1256
ag1258
ag1259
ag1260
ag1261
ag1262
ag1263
ag1143
ag1145
ag1146
ag1147
ag1148
ag1149
ag1150
aS'BIB'
p1414
aS'BOB'
p1415
aS'BOB'
p1416
aS'BUB'
p1417
aS'CAB'
p1418
aS'DAB'
p1419
aS'GAB'
p1420
aS'JAB'
p1421
ag621
ag625
ag626
ag627
ag628
ag629
ag294
ag295
ag630
asS'ERA'
p1422
(lp1423
g1397
ag1080
ag1399
ag1364
ag1366
aS'ETA'
p1424
ag766
aS'FRA'
p1425
ag970
ag972
ag973
ag974
ag975
ag300
ag926
asS'CAM'
p1426
(lp1427
g1323
ag1152
ag1325
ag1326
ag1327
ag1328
ag1221
ag1204
aS'CWM'
p1428
aS'DAM'
p1429
aS'FAM'
p1430
aS'GAM'
p1431
aS'HAM'
p1432
aS'JAM'
p1433
aS'JAM'
p1434
ag528
ag543
ag544
ag545
ag546
ag547
ag307
ag308
ag363
ag364
ag265
ag548
asS'CAL'
p1435
(lp1436
g1426
ag1323
ag1152
ag1325
ag1326
ag1327
ag1328
ag1221
aS'COL'
p1437
aS'DAL'
p1438
aS'GAL'
p1439
aS'HAL'
p1440
ag648
ag705
ag361
ag362
ag263
ag264
ag323
asg1262
(lp1441
g1143
ag1145
ag1146
ag1147
ag1148
ag1149
ag1150
ag723
ag748
ag729
ag730
ag731
ag732
ag1323
ag1330
ag1331
ag1332
ag1333
ag1334
ag1335
ag1336
ag1337
ag1338
ag1339
ag530
ag551
ag552
ag553
ag554
ag555
ag309
ag310
ag365
ag366
ag266
ag556
ag557
ag558
ag559
ag560
asg1418
(lp1442
g1404
ag1267
ag1435
ag1426
ag1323
ag1152
ag1325
ag1326
ag1327
ag1328
ag1221
aS'COB'
p1443
aS'CUB'
p1444
ag1419
ag1420
ag1421
ag621
ag625
ag626
ag627
ag628
ag629
ag294
ag295
ag630
asg1259
(lp1445
g1261
ag1262
ag1263
ag1143
ag1145
ag1146
ag1147
ag1148
ag1149
ag1150
ag746
ag780
ag1435
ag1438
ag1439
ag1440
ag648
ag705
ag361
ag362
ag263
ag264
ag323
asg1261
(lp1446
g1262
ag1263
ag1143
ag1145
ag1146
ag1147
ag1148
ag1149
ag1150
aS'BIM'
p1447
aS'BOM'
p1448
ag1203
ag1426
ag1429
ag1430
ag1431
ag1432
ag1433
ag1434
ag528
ag543
ag544
ag545
ag546
ag547
ag307
ag308
ag363
ag364
ag265
ag548
asg1267
(lp1449
g1435
ag1426
ag1323
ag1152
ag1325
ag1326
ag1327
ag1328
ag1221
aS'CIG'
p1450
aS'COG'
p1451
ag1268
ag1269
ag1270
ag1271
ag1272
ag593
ag609
ag610
ag611
ag356
ag259
ag289
ag290
ag291
asg1116
(lp1452
g1138
asg1258
(lp1453
g1259
ag1260
ag1261
ag1262
ag1263
ag1143
ag1145
ag1146
ag1147
ag1148
ag1149
ag1150
aS'DAH'
p1454
aS'HAH'
p1455
ag647
ag692
ag303
ag317
ag318
ag319
asg1404
(lp1456
g1267
ag1435
ag1426
ag1323
ag1152
ag1325
ag1326
ag1327
ag1328
ag1221
aS'CID'
p1457
aS'COD'
p1458
aS'CUD'
p1459
ag1405
ag1406
ag1407
ag1408
ag1409
ag591
ag597
ag598
ag599
ag600
ag256
ag296
ag271
ag272
ag273
asg396
(lp1460
S'HIS'
p1461
ag407
ag1119
ag900
ag941
ag397
ag398
ag399
ag400
ag401
ag402
ag108
ag128
ag129
ag130
ag131
asg1461
(lp1462
g407
ag714
ag13
ag14
aS'VIS'
p1463
aS'WIS'
p1464
ag29
asg407
(lp1465
S'HOT'
p1466
ag851
ag408
ag409
ag410
ag411
ag156
ag412
ag15
ag33
ag34
asg25
(lp1467
g953
ag954
ag955
ag956
ag26
ag27
ag28
asg938
(lp1468
g193
ag186
ag127
ag17
ag829
aS'SUU'
p1469
aS'SUZ'
p1470
asg1138
(lp1471
S'KRU'
p1472
ag233
aS'LOU'
p1473
ag574
ag980
ag953
ag1031
ag1032
asg1011
(lp1474
S'ONE'
p1475
aS'ONS'
p1476
ag975
ag771
ag772
aS'UNA'
p1477
asg1475
(lp1478
g1476
aS'OPE'
p1479
ag992
ag1316
ag1317
asS'HIA'
p1480
(lp1481
S'HIC'
p1482
ag481
ag512
ag508
ag396
ag1461
ag407
aS'HWA'
p1483
aS'PIA'
p1484
aS'PIA'
p1485
ag1128
ag118
ag124
asg1482
(lp1486
g481
ag512
ag508
ag396
ag1461
ag407
aS'PIC'
p1487
ag1385
ag100
ag111
ag112
asg481
(lp1488
g512
ag508
ag396
ag1461
ag407
ag1097
ag893
ag482
ag483
ag484
ag103
ag278
ag485
asg515
(lp1489
g516
ag517
ag197
ag62
ag64
ag65
ag66
asS'FEU'
p1490
(lp1491
S'FEW'
p1492
ag837
aS'FEZ'
p1493
aS'FLU'
p1494
aS'FOU'
p1495
aS'LEU'
p1496
asS'NUL'
p1497
(lp1498
g919
ag853
ag643
asg512
(lp1499
g508
ag396
ag1461
ag407
ag898
ag384
ag443
ag444
ag445
ag446
ag447
ag448
ag449
ag106
ag194
ag195
ag196
asg508
(lp1500
g396
ag1461
ag407
ag72
ag899
ag385
ag428
ag429
ag430
ag431
ag432
ag107
ag187
ag188
ag189
ag190
ag191
asS'ABA'
p1501
(lp1502
S'ABB'
p1503
aS'ABE'
p1504
aS'ABO'
p1505
aS'ABU'
p1506
aS'ABU'
p1507
aS'ABY'
p1508
aS'ADA'
p1509
ag85
ag87
ag88
ag89
ag90
ag91
ag92
ag93
ag94
ag95
ag96
ag97
ag98
ag99
aS'IBA'
p1510
asg1503
(lp1511
g1504
ag1505
ag1506
ag1507
ag1508
ag1283
ag1290
aS'EBB'
p1512
asg1504
(lp1513
g1505
ag1506
ag1507
ag1508
aS'ACE'
p1514
aS'ADE'
p1515
aS'ADE'
p1516
ag48
ag50
ag51
ag52
ag53
ag54
ag55
ag56
ag57
ag58
ag59
ag60
ag61
aS'OBE'
p1517
asg280
(lp1518
g287
ag352
ag915
ag454
ag221
ag227
ag206
aS'TUX'
p1519
ag65
asg606
(lp1520
S'LOO'
p1521
ag698
ag685
ag686
ag1473
ag696
ag660
ag664
ag607
ag608
ag1090
ag986
ag38
ag133
ag177
ag178
ag179
asg262
(lp1522
g263
ag264
ag265
ag266
ag267
ag268
ag217
ag219
ag162
ag163
ag200
ag201
ag202
ag203
ag204
asg1505
(lp1523
g1506
ag1507
ag1508
aS'ADO'
p1524
ag1
ag4
ag5
ag6
ag7
ag8
ag9
ag1159
asS'PIK'
p1525
(lp1526
g448
ag432
ag401
ag381
ag156
ag440
ag1232
asS'OWN'
p1527
(lp1528
sg1506
(lp1529
g1508
ag563
ag676
ag677
ag678
asg1508
(lp1530
S'ADY'
p1531
ag3
ag138
ag139
ag140
ag141
ag142
asg964
(lp1532
sg43
(lp1533
g743
ag133
ag951
ag952
ag946
ag947
ag80
ag81
ag126
ag25
ag953
ag954
ag955
ag956
ag144
ag145
ag44
ag45
ag46
ag47
asg472
(lp1534
g473
ag474
ag475
ag476
ag395
ag403
ag1088
ag382
ag388
ag389
ag390
ag391
ag104
ag134
ag135
ag136
asS'OWK'
p1535
(lp1536
S'OWL'
p1537
ag1527
asg128
(lp1538
g33
ag220
ag221
ag129
ag130
ag131
asg247
(lp1539
g248
ag173
ag249
ag18
ag243
ag866
ag867
asg435
(lp1540
sg408
(lp1541
g410
ag411
ag156
ag412
ag15
ag33
ag34
asg650
(lp1542
g651
ag652
ag653
ag654
ag655
ag568
ag570
ag571
ag572
ag573
ag1121
ag699
ag700
ag311
ag368
ag217
ag222
ag223
asS'IVY'
p1543
(lp1544
sg1347
(lp1545
g1225
aS'GAZ'
p1546
ag1348
ag1349
ag1350
ag537
ag570
ag584
ag152
ag237
ag238
ag202
ag170
ag216
asg975
(lp1547
g989
ag991
ag992
ag993
ag994
ag995
ag771
ag772
ag300
ag926
asg951
(lp1548
g952
ag946
ag947
ag80
ag81
ag126
ag25
ag953
ag954
ag955
ag956
asS'UDI'
p1549
(lp1550
g1287
aS'UDS'
p1551
aS'UJI'
p1552
ag931
asg952
(lp1553
g946
ag947
ag80
ag81
ag126
ag25
ag953
ag954
ag955
ag956
ag938
aS'YOK'
p1554
asg1007
(lp1555
g47
ag958
ag179
ag83
ag846
ag847
ag27
ag848
ag849
asg468
(lp1556
g486
ag478
ag470
ag472
ag473
ag474
ag475
ag476
ag395
ag403
ag1072
ag413
ag417
ag418
ag419
ag113
ag117
asg491
(lp1557
g482
ag477
ag445
ag429
ag430
ag398
ag714
ag410
aS'LIV'
p1558
aS'LIZ'
p1559
ag596
ag492
ag493
ag494
ag102
ag146
ag147
ag148
asg482
(lp1560
g477
ag445
ag429
ag430
ag398
ag714
ag410
ag1558
ag1559
ag902
ag517
ag483
ag484
ag103
ag278
ag485
asg477
(lp1561
g445
ag429
ag430
ag398
ag714
ag410
ag1558
ag1559
aS'LOF'
p1562
asg446
(lp1563
g431
ag380
ag438
ag914
ag447
ag448
ag449
ag106
ag194
ag195
ag196
asg703
(lp1564
g446
ag431
ag380
ag438
aS'NIL'
p1565
aS'OIL'
p1566
ag105
ag321
asg431
(lp1567
g380
ag438
ag76
ag77
ag918
ag432
ag107
ag187
ag188
ag189
ag190
ag191
asg445
(lp1568
g429
ag430
ag398
ag714
ag410
ag1558
ag1559
ag541
ag542
ag446
ag447
ag448
ag449
ag106
ag194
ag195
ag196
asg429
(lp1569
g398
ag714
ag410
ag1558
ag1559
ag431
ag432
ag107
ag187
ag188
ag189
ag190
ag191
asg417
(lp1570
g492
ag388
ag703
ag704
ag446
ag431
ag380
ag438
ag657
ag418
ag419
ag113
ag117
asg492
(lp1571
g388
ag703
ag704
ag446
ag431
ag380
ag438
ag1094
ag763
ag493
ag494
ag102
ag146
ag147
ag148
asg388
(lp1572
g703
ag704
ag446
ag431
ag380
ag438
ag1090
ag904
ag389
ag390
ag391
ag104
ag134
ag135
ag136
asg627
(lp1573
g599
ag611
ag303
ag305
ag306
ag307
ag308
ag309
ag310
ag311
ag312
ag160
ag237
ag313
ag314
ag315
ag1125
ag419
ag1005
ag1006
ag909
ag629
ag294
ag295
ag630
asg507
(lp1574
g424
ag756
ag757
ag406
ag758
ag759
ag760
ag458
ag899
ag427
ag918
ag919
ag450
ag453
ag186
ag454
ag250
ag455
asg438
(lp1575
g602
ag439
ag440
ag441
ag16
asg1558
(lp1576
g1559
asg10
(lp1577
sg1082
(lp1578
g1282
aS'UME'
p1579
ag929
aS'USE'
p1580
aS'UTE'
p1581
asg714
(lp1582
g410
ag1558
ag1559
ag715
ag13
ag14
ag1463
ag1464
ag29
asg380
(lp1583
g438
ag1112
ag381
ag11
ag109
ag18
asS'EGG'
p1584
(lp1585
g10
ag1399
asg249
(lp1586
g184
ag849
ag435
asg1559
(lp1587
g911
asg238
(lp1588
g370
ag371
ag335
ag955
ag202
ag170
ag216
asg360
(lp1589
g361
ag362
ag363
ag364
ag365
ag366
ag367
ag368
ag369
ag161
ag238
ag370
ag371
ag952
ag938
ag589
ag590
asg611
(lp1590
g303
ag305
ag306
ag307
ag308
ag309
ag310
ag311
ag312
ag160
ag237
ag313
ag314
ag315
ag1127
ag391
ag38
ag176
ag356
ag259
ag289
ag290
ag291
asg599
(lp1591
g611
ag303
ag305
ag306
ag307
ag308
ag309
ag310
ag311
ag312
ag160
ag237
ag313
ag314
ag315
ag804
ag805
ag494
ag35
ag988
ag42
ag600
ag256
ag296
ag271
ag272
ag273
asg473
(lp1592
g474
ag475
ag476
ag395
ag403
ag1058
ag755
aS'KIL'
p1593
ag703
ag704
ag1565
ag1566
ag105
ag321
asg1189
(lp1594
g1134
aS'JOY'
p1595
ag852
ag685
ag686
ag1303
ag979
ag157
ag19
ag25
ag26
ag27
ag28
asg365
(lp1596
g367
ag368
ag369
ag161
ag238
ag370
ag371
ag332
ag107
ag80
ag81
ag186
ag266
ag556
ag557
ag558
ag559
ag560
asg363
(lp1597
g365
ag366
ag367
ag368
ag369
ag161
ag238
ag370
ag371
ag106
ag193
ag265
ag548
asg1134
(lp1598
g1595
ag696
ag583
ag981
ag236
ag21
ag955
ag215
ag1135
ag848
ag949
asg309
(lp1599
g311
ag312
ag160
ag237
ag313
ag314
ag315
ag41
ag453
ag365
ag366
ag266
ag556
ag557
ag558
ag559
ag560
asg1595
(lp1600
g664
ag1305
ag982
ag1021
ag23
ag956
ag182
ag849
ag1022
asg1193
(lp1601
S'PRY'
p1602
ag933
ag433
asg307
(lp1603
g309
ag310
ag311
ag312
ag160
ag237
ag313
ag314
ag315
ag449
ag843
ag844
ag363
ag364
ag265
ag548
asg305
(lp1604
g307
ag308
ag309
ag310
ag311
ag312
ag160
ag237
ag313
ag314
ag315
ag359
ag262
asg510
(lp1605
g507
ag424
ag756
ag757
ag406
ag758
ag759
ag760
ag456
ag898
ag541
ag542
ag914
ag843
ag844
ag193
ag915
ag916
asg600
(lp1606
g356
ag317
ag358
ag359
ag360
ag361
ag362
ag363
ag364
ag365
ag366
ag367
ag368
ag369
ag161
ag238
ag370
ag371
ag102
ag43
ag144
ag145
ag256
ag296
ag271
ag272
ag273
asg1115
(lp1607
g1189
ag1134
ag1595
ag1116
asg415
(lp1608
g1098
ag1099
ag386
ag74
ag1115
ag1189
ag1134
ag1595
ag1074
ag624
ag657
ag999
ag1004
ag1005
ag1006
ag115
ag1007
asg370
(lp1609
g371
ag336
ag16
ag203
ag171
ag603
asg1098
(lp1610
g386
ag74
ag1115
ag1189
ag1134
ag1595
ag1100
ag1101
ag37
ag743
ag279
ag957
ag958
ag959
asg311
(lp1611
g312
ag160
ag237
ag313
ag314
ag315
ag1104
ag402
ag368
ag217
ag222
ag223
asg386
(lp1612
g74
ag1115
ag1189
ag1134
ag1595
ag387
ag606
ag1090
ag986
ag38
ag133
ag177
ag178
ag179
asg369
(lp1613
g161
ag238
ag370
ag371
ag333
ag11
ag109
ag17
ag219
ag228
ag229
ag230
asg368
(lp1614
g369
ag161
ag238
ag370
ag371
ag108
ag126
ag127
ag217
ag222
ag223
asS'GOY'
p1615
(lp1616
g758
ag759
aS'HOY'
p1617
ag1595
ag664
ag1305
ag982
ag1021
ag23
ag956
ag182
ag849
ag1022
asg193
(lp1618
g186
ag127
ag17
ag829
ag1469
ag1470
ag915
ag916
asg74
(lp1619
g1115
ag1189
ag1134
ag1595
ag427
ag75
ag76
ag77
ag78
ag79
ag41
ag80
ag81
ag82
ag83
ag84
asg314
(lp1620
g23
ag371
ag204
ag172
asg928
(lp1621
g929
ag930
ag931
ag932
ag933
ag934
ag284
asg564
(lp1622
S'CHE'
p1623
aS'CHI'
p1624
ag613
ag565
ag566
ag338
ag298
ag567
asg930
(lp1625
g931
ag932
ag933
ag934
ag284
asg818
(lp1626
g1214
aS'NEI'
p1627
aS'NEO'
p1628
aS'NEP'
p1629
aS'NEP'
p1630
ag888
ag889
ag1186
ag197
ag819
ag820
ag821
ag330
ag275
ag822
ag823
ag824
ag825
asg516
(lp1631
g69
ag517
ag197
ag62
ag64
ag65
ag66
asg1623
(lp1632
g1624
ag613
aS'COE'
p1633
aS'CUE'
p1634
aS'RHE'
p1635
aS'SHE'
p1636
ag276
ag277
asg131
(lp1637
sg1227
(lp1638
g1595
ag1229
ag1230
ag539
ag572
ag573
ag665
ag154
ag314
ag315
ag371
ag204
ag172
asg61
(lp1639
g678
ag513
ag515
ag516
ag517
ag197
ag62
ag64
ag65
ag66
asg1624
(lp1640
g613
aS'IHI'
p1641
aS'PHI'
p1642
aS'SHI'
p1643
asg1392
(lp1644
g1349
ag1227
ag1228
ag885
ag1189
ag852
ag1393
ag536
ag654
ag655
ag688
ag689
ag149
ag690
ag160
ag161
ag162
ag163
ag164
ag165
ag166
ag167
ag168
asg954
(lp1645
g955
ag956
asg1360
(lp1646
g1392
ag1349
ag1227
ag1228
ag831
ag533
ag534
ag651
ag652
ag709
ag710
ag711
ag369
ag219
ag228
ag229
ag230
asg653
(lp1647
g654
ag655
ag568
ag570
ag571
ag572
ag573
ag873
ag1218
ag827
ag312
ag716
ag255
ag717
asg1156
(lp1648
g1360
ag1392
ag1349
ag1227
ag1228
ag532
ag650
ag699
ag700
ag311
ag368
ag217
ag222
ag223
asg613
(lp1649
S'COO'
p1650
aS'CRO'
p1651
ag614
ag615
ag616
ag617
ag618
ag619
ag343
ag344
ag620
asg1338
(lp1652
g1156
ag1157
ag1360
ag1392
ag1349
ag1227
ag1228
ag385
ag74
ag427
ag1339
ag530
ag551
ag552
ag553
ag554
ag555
ag309
ag310
ag365
ag366
ag266
ag556
ag557
ag558
ag559
ag560
asg956
(lp1653
g325
ag326
ag964
ag182
ag849
ag1022
asg1433
(lp1654
g1338
ag1156
ag1157
ag1360
ag1392
ag1349
ag1227
ag1228
ag1212
ag384
ag528
ag543
ag544
ag545
ag546
ag547
ag307
ag308
ag363
ag364
ag265
ag548
asg1295
(lp1655
sg1476
(lp1656
sg678
(lp1657
g233
asg1272
(lp1658
g1433
ag1434
ag1338
ag1156
ag1157
ag1360
ag1392
ag1349
ag1227
ag1228
ag382
ag386
ag387
ag593
ag609
ag610
ag611
ag356
ag259
ag289
ag290
ag291
asS'IST'
p1659
(lp1660
g158
ag205
aS'UST'
p1661
asg1421
(lp1662
g1272
ag1433
ag1434
ag1338
ag1156
ag1157
ag1360
ag1392
ag1349
ag1227
ag1228
ag413
ag415
ag416
ag621
ag625
ag626
ag627
ag628
ag629
ag294
ag295
ag630
asg1125
(lp1663
g804
ag805
ag820
ag821
ag1126
ag1127
ag316
ag752
ag1104
ag521
ag1083
ag1037
ag1085
ag419
ag1005
ag1006
ag909
aS'WEB'
p1664
asg654
(lp1665
g568
ag570
ag571
ag572
ag573
ag887
ag1303
ag688
ag689
ag149
ag690
ag160
ag161
ag162
ag163
ag164
ag165
ag166
ag167
ag168
asS'PYX'
p1666
(lp1667
sg112
(lp1668
g485
ag195
ag129
ag1463
asg124
(lp1669
g112
ag485
ag195
ag129
ag1463
asS'KAF'
p1670
(lp1671
S'KAI'
p1672
aS'KAJ'
p1673
ag1339
ag1393
ag1350
ag1229
ag1230
ag1213
aS'OAF'
p1674
aS'WAF'
p1675
asg485
(lp1676
g195
ag129
ag1463
ag957
asg1673
(lp1677
g1339
ag1393
ag1350
ag1229
ag1230
ag305
ag306
ag359
ag262
asg1672
(lp1678
g1673
ag1339
ag1393
ag1350
ag1229
ag1230
ag1182
ag924
ag575
ag594
ag358
ag260
ag261
ag354
asg145
(lp1679
g64
asg1339
(lp1680
g1393
ag1350
ag1229
ag1230
ag737
ag738
ag428
ag75
ag530
ag551
ag552
ag553
ag554
ag555
ag309
ag310
ag365
ag366
ag266
ag556
ag557
ag558
ag559
ag560
asg671
(lp1681
g672
ag673
ag674
aS'OPT'
p1682
asg1420
(lp1683
g1407
ag1408
ag1270
aS'GAJ'
p1684
ag1439
ag1431
ag1335
ag1154
ag1359
ag1363
ag1390
aS'GAU'
p1685
ag1347
ag1225
ag1546
ag468
ag469
ag1072
ag1421
ag621
ag625
ag626
ag627
ag628
ag629
ag294
ag295
ag630
asg572
(lp1686
g1305
ag665
ag154
ag314
ag315
ag371
ag204
ag172
asg129
(lp1687
g1463
ag130
ag131
asg1350
(lp1688
g1229
ag1230
ag537
ag570
ag584
ag152
ag237
ag238
ag202
ag170
ag216
asg617
(lp1689
g504
ag505
ag618
ag619
ag343
ag344
ag620
asg1393
(lp1690
g1350
ag1229
ag1230
ag886
ag408
ag409
ag536
ag654
ag655
ag688
ag689
ag149
ag690
ag160
ag161
ag162
ag163
ag164
ag165
ag166
ag167
ag168
asg207
(lp1691
sS'PYA'
p1692
(lp1693
g242
ag1666
asg1229
(lp1694
g840
ag539
ag572
ag573
ag665
ag154
ag314
ag315
ag371
ag204
ag172
asg94
(lp1695
g53
ag671
ag95
ag96
ag97
ag98
ag99
ag122
asg1635
(lp1696
g617
ag484
ag37
ag842
ag62
ag1636
ag276
ag277
asg53
(lp1697
g671
ag54
ag55
ag56
ag57
ag58
ag59
ag60
ag61
ag1479
asS'OCH'
p1698
(lp1699
S'OCK'
p1700
aS'TCH'
p1701
asg422
(lp1702
g406
ag851
ag852
ag687
ag853
ag854
ag159
ag24
ag206
ag174
asg378
(lp1703
g422
ag756
ag831
ag708
ag832
ag239
ag17
ag227
ag243
asS'SAA'
p1704
(lp1705
g629
ag636
ag637
ag600
ag356
ag317
ag358
ag359
ag360
ag361
ag362
ag363
ag364
ag365
ag366
ag367
ag368
ag369
ag161
ag238
ag370
ag371
ag327
ag338
ag118
ag120
ag121
ag122
ag123
ag292
asg127
(lp1706
g17
ag829
ag1469
ag1470
ag221
ag942
asg1043
(lp1707
g84
ag1036
ag28
ag1032
ag949
ag211
ag1022
asg160
(lp1708
g237
ag313
ag314
ag315
ag521
ag412
ag19
ag24
ag161
ag162
ag163
ag164
ag165
ag166
ag167
ag168
asg807
(lp1709
g824
ag252
aS'YEO'
p1710
aS'YEP'
p1711
ag866
ag876
ag523
ag1187
ag1040
ag526
ag148
ag808
asS'IFE'
p1712
(lp1713
g1081
ag1401
asg499
(lp1714
g1205
ag519
ag378
ag379
ag422
ag490
ag761
ag762
ag763
ag640
ag42
ag144
ag644
asg935
(lp1715
g1581
aS'UTU'
p1716
ag773
asg467
(lp1717
g499
ag1205
ag519
ag378
ag379
ag422
ag905
ag907
ag908
ag909
ag116
ag910
asg136
(lp1718
g131
asg251
(lp1719
sg519
(lp1720
g378
ag379
ag422
ag507
ag899
ag427
ag918
ag919
ag450
ag453
ag186
ag454
ag250
ag455
asg639
(lp1721
g273
ag291
ag590
ag560
ag230
ag168
ag603
asS'SSI'
p1722
(lp1723
S'SSU'
p1724
ag925
asg1205
(lp1725
g519
ag378
ag379
ag422
ag510
ag511
ag898
ag541
ag542
ag914
ag843
ag844
ag193
ag915
ag916
asg909
(lp1726
g42
ag842
ag176
ag843
ag844
ag453
ag828
ag24
ag209
ag116
ag910
asg810
(lp1727
g1379
ag1623
ag1633
ag1634
ag811
ag812
ag813
ag814
ag815
ag816
ag817
ag818
ag819
ag820
ag821
ag330
ag275
ag822
ag823
ag824
ag825
asS'UGH'
p1728
(lp1729
S'USH'
p1730
asg1040
(lp1731
g526
ag211
asg914
(lp1732
g918
ag827
ag602
ag843
ag844
ag193
ag915
ag916
asg31
(lp1733
sg771
(lp1734
g773
asg1629
(lp1735
g888
ag889
ag1186
ag399
ag400
aS'PEP'
p1736
ag1104
ag1711
aS'ZEP'
p1737
asg1379
(lp1738
g1380
ag1381
ag1382
aS'HEP'
p1739
aS'KEP'
p1740
ag1629
ag1630
ag1736
ag1104
ag1711
ag1737
asg646
(lp1741
g609
ag647
ag648
ag543
ag551
ag649
ag650
ag651
ag652
ag653
ag654
ag655
ag568
ag570
ag571
ag572
ag573
ag1100
ag1302
ag258
ag281
asg428
(lp1742
g397
ag408
ag409
ag75
ag429
ag430
ag431
ag432
ag107
ag187
ag188
ag189
ag190
ag191
asg335
(lp1743
g336
ag337
ag955
ag214
ag1187
asS'END'
p1744
(lp1745
S'ENS'
p1746
ag1397
ag1026
asg540
(lp1747
g1559
asg1174
(lp1748
S'SKY'
p1749
ag1310
aS'SNY'
p1750
ag956
ag325
ag326
ag964
ag180
ag184
asg934
(lp1751
g284
asg644
(lp1752
g250
ag942
ag243
ag174
asg216
(lp1753
g1187
ag949
asg847
(lp1754
g27
ag848
ag849
ag942
asg338
(lp1755
g1636
ag1643
ag618
ag619
ag682
ag1174
ag118
ag120
ag121
ag122
ag123
ag298
ag567
asg846
(lp1756
g847
ag27
ag848
ag849
ag433
aS'ZOO'
p1757
asg1746
(lp1758
g1366
ag1368
ag1476
asg1636
(lp1759
g1643
ag618
ag619
ag682
ag1174
ag103
ag743
ag744
ag745
ag64
ag276
ag277
asg1711
(lp1760
g866
ag876
ag523
ag1187
ag1040
ag526
ag130
ag1737
asS'AFT'
p1761
(lp1762
g562
ag667
ag668
ag669
ag670
ag671
ag672
ag673
ag674
aS'EFT'
p1763
aS'OFT'
p1764
asg1643
(lp1765
g618
ag619
ag682
ag1174
aS'SKI'
p1766
aS'SRI'
p1767
aS'SRI'
p1768
ag1722
ag925
asg179
(lp1769
g83
ag846
ag847
ag27
ag848
ag849
asg609
(lp1770
g647
ag648
ag543
ag551
ag649
ag650
ag651
ag652
ag653
ag654
ag655
ag568
ag570
ag571
ag572
ag573
aS'MEG'
p1771
ag388
ag1090
ag904
ag610
ag611
ag356
ag259
ag289
ag290
ag291
asg333
(lp1772
g334
ag335
ag336
ag337
ag11
ag109
ag17
ag247
ag866
ag867
asg866
(lp1773
g876
ag523
ag1187
ag1040
ag526
ag1036
ag867
asS'STU'
p1774
(lp1775
g964
ag1469
ag1716
asg1724
(lp1776
g1774
ag1469
asg543
(lp1777
g551
ag649
ag650
ag651
ag652
ag653
ag654
ag655
ag568
ag570
ag571
ag572
ag573
ag1234
ag446
ag914
ag544
ag545
ag546
ag547
ag307
ag308
ag363
ag364
ag265
ag548
asg250
(lp1778
g942
ag243
ag174
ag251
ag455
asg1025
(lp1779
sg1127
(lp1780
g316
ag752
ag1104
ag521
ag1083
ag1037
ag1085
ag391
ag38
ag176
ag331
ag286
asg649
(lp1781
g650
ag651
ag652
ag653
ag654
ag655
ag568
ag570
ag571
ag572
ag573
aS'MEO'
p1782
ag614
aS'MOO'
p1783
ag367
ag267
ag268
ag347
asg1767
(lp1784
g1722
ag925
ag351
ag931
asg551
(lp1785
g649
ag650
ag651
ag652
ag653
ag654
ag655
ag568
ag570
ag571
ag572
ag573
ag739
ag431
ag76
ag77
ag918
ag552
ag553
ag554
ag555
ag309
ag310
ag365
ag366
ag266
ag556
ag557
ag558
ag559
ag560
asg483
(lp1786
g390
ag1525
ag448
ag432
ag401
ag381
ag156
ag440
ag1101
ag484
ag103
ag278
ag485
asg852
(lp1787
g687
ag853
ag854
ag159
ag24
ag206
ag174
asg708
(lp1788
g687
ag661
ag832
ag239
ag17
ag227
ag243
asg56
(lp1789
S'ATI'
p1790
ag57
ag58
ag59
ag60
ag61
ag1581
asg687
(lp1791
g661
ag853
ag854
ag159
ag24
ag206
ag174
asg827
(lp1792
g602
ag241
ag828
ag829
ag31
asg97
(lp1793
g56
ag1790
ag98
ag99
ag1424
aS'ITA'
p1794
ag935
ag936
asg661
(lp1795
g602
ag209
ag1519
asg211
(lp1796
g1022
asg602
(lp1797
g209
ag1519
asg210
(lp1798
g182
ag1519
ag211
asg1790
(lp1799
sg763
(lp1800
g904
ag914
ag918
ag827
ag602
ag640
ag42
ag144
ag644
asg904
(lp1801
g914
ag918
ag827
ag602
ag642
ag176
ag287
ag722
asg632
(lp1802
g902
ag607
ag608
ag580
ag541
ag542
aS'LUO'
p1803
ag708
ag687
ag661
asg1017
(lp1804
g1659
ag1018
ag1019
asg902
(lp1805
g607
ag608
ag580
ag541
ag542
ag1803
ag708
ag687
ag661
ag517
ag842
ag744
ag745
ag280
asS'ISM'
p1806
(lp1807
g1017
ag1659
asg607
(lp1808
g580
ag541
ag542
ag1803
ag708
ag687
ag661
ag904
ag642
ag176
ag287
ag722
asg651
(lp1809
g653
ag654
ag655
ag568
ag570
ag571
ag572
ag573
ag862
ag380
ag1112
ag709
ag710
ag711
ag369
ag219
ag228
ag229
ag230
asg580
(lp1810
g541
ag542
ag1803
ag708
ag687
ag661
ag925
ag352
asg918
(lp1811
g827
ag602
ag919
ag450
ag453
ag186
ag454
ag250
ag455
asg541
(lp1812
g1803
ag708
ag687
ag661
ag914
ag843
ag844
ag193
ag915
ag916
asg588
(lp1813
g545
ag710
ag689
ag1700
ag1535
ag360
ag589
ag590
asg1803
(lp1814
g708
ag687
ag661
aS'LWO'
p1815
ag1295
asS'ASS'
p1816
(lp1817
g674
ag1199
ag1368
asg331
(lp1818
g332
ag333
ag334
ag335
ag336
ag337
ag104
ag133
ag286
asg1322
(lp1819
g1816
ag674
asg480
(lp1820
g755
ag510
ag511
ag507
ag424
ag756
ag757
ag406
ag758
ag759
ag760
ag893
ag902
ag842
ag744
ag745
ag280
asg223
(lp1821
g229
ag717
ag167
ag216
ag1711
ag130
asg674
(lp1822
g1659
ag158
ag205
ag1661
asg853
(lp1823
g854
ag159
ag24
ag206
ag174
asg1510
(lp1824
g1159
aS'IDA'
p1825
ag1291
aS'IMA'
p1826
ag972
ag1794
ag770
aS'IWA'
p1827
asg337
(lp1828
g1174
ag1749
ag1310
ag1750
ag956
ag325
ag326
ag964
ag249
asg336
(lp1829
g337
ag16
ag1039
ag1040
asg919
(lp1830
g853
ag450
ag453
ag186
ag454
ag250
ag455
asg96
(lp1831
g55
aS'ASH'
p1832
ag1253
ag1322
ag1816
ag674
ag97
ag98
ag99
asg329
(lp1833
g330
ag331
ag332
ag333
ag334
ag335
ag336
ag337
ag100
ag110
aS'TEC'
p1834
asg55
(lp1835
g1832
ag1253
ag1322
ag1816
ag674
ag56
ag57
ag58
ag59
ag60
ag61
ag1316
ag1580
asg1253
(lp1836
g1322
ag1816
ag674
ag1196
ag1197
asg332
(lp1837
g333
ag334
ag335
ag336
ag337
ag107
ag80
ag81
ag186
ag741
ag245
ag252
ag253
asg1832
(lp1838
g1253
ag1322
ag1816
ag674
ag1194
ag1730
asg907
(lp1839
g1497
ag919
ag853
ag908
ag909
ag116
ag910
asS'UMP'
p1840
(lp1841
S'UMU'
p1842
asg1826
(lp1843
S'IMI'
p1844
aS'IMP'
p1845
aS'IMU'
p1846
ag972
ag1794
ag770
ag1827
ag121
asg1425
(lp1847
g1190
ag1192
ag970
ag972
ag973
ag974
ag975
ag300
ag926
asg350
(lp1848
g322
ag1041
ag82
ag345
ag220
ag225
ag226
ag26
ag1031
ag215
ag210
ag182
ag351
ag352
ag353
ag1343
asg1063
(lp1849
g1053
ag1141
ag1118
ag1142
ag1205
ag510
ag511
ag898
ag541
ag542
ag914
ag843
ag844
ag193
ag915
ag916
asg1053
(lp1850
g1141
ag1118
ag1142
ag519
ag507
ag899
ag427
ag918
ag919
ag450
ag453
ag186
ag454
ag250
ag455
asg1141
(lp1851
g1118
ag1142
ag1803
ag1295
asg1844
(lp1852
g1845
ag1846
asg167
(lp1853
g216
ag523
ag28
ag168
asg1071
(lp1854
g1092
ag1096
ag1087
ag1063
ag1053
ag1141
ag1118
ag1142
ag467
ag905
ag907
ag908
ag909
ag116
ag910
asg739
(lp1855
g1782
ag862
ag873
ag887
aS'MEV'
p1856
ag582
ag431
ag76
ag77
ag918
ag740
ag332
ag741
ag245
ag252
ag253
asg1092
(lp1857
g1096
ag1087
ag1063
ag1053
ag1141
ag1118
ag1142
ag499
ag490
ag761
ag762
ag763
ag640
ag42
ag144
ag644
asg1096
(lp1858
g1087
ag1063
ag1053
ag1141
ag1118
ag1142
ag515
ag480
ag893
ag902
ag842
ag744
ag745
ag280
asg717
(lp1859
g167
ag216
ag876
ag29
ag31
asg779
(lp1860
g746
ag780
ag723
ag748
ag725
ag726
ag727
ag728
ag1264
ag1265
ag1266
aS'DEG'
p1861
aS'KEG'
p1862
ag605
ag1771
aS'PEG'
p1863
aS'PEG'
p1864
ag1127
ag331
ag286
asg1142
(lp1865
g661
ag602
ag209
ag1519
asg1845
(lp1866
g1846
ag1840
asg347
(lp1867
g223
ag229
ag717
ag167
ag216
ag1710
asg559
(lp1868
g347
ag223
ag229
ag717
ag167
ag216
ag252
ag190
ag191
ag84
ag455
ag560
asg1846
(lp1869
g1842
asg1307
(lp1870
g1352
ag1353
ag1308
ag1309
ag1310
asg589
(lp1871
g548
ag559
ag347
ag223
ag229
ag717
ag167
ag216
ag1554
ag590
asg1118
(lp1872
g1142
ag424
ag900
ag452
ag127
ag221
ag942
asg272
(lp1873
g319
ag589
ag548
ag559
ag347
ag223
ag229
ag717
ag167
ag216
ag807
ag148
ag273
asg1192
(lp1874
g995
ag1602
ag183
ag435
asg755
(lp1875
g510
ag511
ag507
ag424
ag756
ag757
ag406
ag758
ag759
ag760
ag1497
ag643
asg28
(lp1876
g1032
ag949
ag211
ag1022
asg1519
(lp1877
sg1018
(lp1878
S'ITS'
p1879
ag1019
aS'OTO'
p1880
asg229
(lp1881
g717
ag167
ag216
ag866
ag1036
ag230
asg531
(lp1882
g532
ag533
ag534
ag535
ag536
ag537
ag538
ag539
ag540
aS'LEO'
p1883
ag1521
ag1803
ag1815
ag649
ag367
ag267
ag268
ag347
asg808
(lp1884
g825
ag753
ag253
ag1737
ag867
asg825
(lp1885
g753
ag253
ag1737
ag867
asg1862
(lp1886
g737
ag738
ag1740
ag861
ag886
aS'KEX'
p1887
ag840
ag605
ag1771
ag1863
ag1864
ag1127
ag331
ag286
asg1213
(lp1888
g1862
ag737
ag738
ag1740
ag861
ag886
ag1887
ag840
ag1214
ag1126
asg815
(lp1889
g1213
ag1862
ag737
ag738
ag1740
ag861
ag886
ag1887
ag840
ag816
ag817
ag818
ag819
ag820
ag821
ag330
ag275
ag822
ag823
ag824
ag825
asg801
(lp1890
g815
ag1213
ag1862
ag737
ag738
ag1740
ag861
ag886
ag1887
ag840
ag595
ag802
ag803
ag804
ag805
ag269
ag270
ag806
ag807
ag808
asg1834
(lp1891
g269
ag270
ag275
ag286
ag741
ag214
aS'TEZ'
p1892
ag111
asS'KEB'
p1893
(lp1894
g801
ag815
ag1213
ag1862
ag737
ag738
ag1740
ag861
ag886
ag1887
ag840
ag1074
aS'NEB'
p1895
ag1125
ag1664
asg783
(lp1896
g1893
ag801
ag815
ag1213
ag1862
ag737
ag738
ag1740
ag861
ag886
ag1887
ag840
ag566
ag1369
ag973
ag974
ag1371
ag784
ag785
ag786
ag787
ag788
ag327
ag297
ag339
ag340
ag341
asg1794
(lp1897
g1018
ag1879
ag770
ag1827
ag935
ag936
asg867
(lp1898
sg352
(lp1899
g915
ag454
ag221
ag227
ag206
ag1519
ag353
asg1737
(lp1900
g867
ag131
asg424
(lp1901
g756
ag757
ag406
ag758
ag759
ag760
ag425
ag900
ag452
ag127
ag221
ag942
asg915
(lp1902
g454
ag221
ag227
ag206
ag1519
ag916
asg840
(lp1903
g663
ag337
ag249
asg1887
(lp1904
g840
ag659
ag1037
ag1085
ag336
ag1039
ag1040
asg301
(lp1905
g910
ag280
ag287
ag352
ag915
ag454
ag221
ag227
ag206
ag1519
ag302
asg910
(lp1906
g280
ag287
ag352
ag915
ag454
ag221
ag227
ag206
ag1519
asg886
(lp1907
g1887
ag840
ag408
ag409
ag684
ag887
ag888
ag889
ag155
ag521
ag334
ag522
ag173
ag523
asg1879
(lp1908
sS'VEI'
p1909
(lp1910
g522
ag1039
aS'WEI'
p1911
asg1740
(lp1912
g861
ag886
ag1887
ag840
ag397
ag1120
ag1629
ag1630
ag1736
ag1104
ag1711
ag1737
asg1337
(lp1913
S'IAO'
p1914
ag1013
ag73
ag1338
ag1339
ag530
ag551
ag552
ag553
ag554
ag555
ag309
ag310
ag365
ag366
ag266
ag556
ag557
ag558
ag559
ag560
asg922
(lp1915
g455
ag31
asS'AAM'
p1916
(lp1917
S'AIM'
p1918
aS'ARM'
p1919
ag1198
ag1261
ag1426
ag1429
ag1430
ag1431
ag1432
ag1433
ag1434
ag528
ag543
ag544
ag545
ag546
ag547
ag307
ag308
ag363
ag364
ag265
ag548
asS'AAL'
p1920
(lp1921
g1916
aS'AIL'
p1922
ag1244
ag1246
ag1259
ag1260
ag1435
ag1438
ag1439
ag1440
ag648
ag705
ag361
ag362
ag263
ag264
ag323
asg243
(lp1923
g174
asg941
(lp1924
sg1396
(lp1925
g422
ag406
ag851
ag852
ag687
ag853
ag854
ag159
ag24
ag206
ag174
asg177
(lp1926
g350
ag322
ag1041
ag82
ag345
ag220
ag225
ag226
ag26
ag1031
ag215
ag210
ag182
ag287
ag288
ag178
ag179
asg237
(lp1927
g313
ag314
ag315
ag21
ag238
ag202
ag170
ag216
asg760
(lp1928
g1470
asg1036
(lp1929
g28
ag1032
ag949
ag211
ag1022
asg205
(lp1930
g206
ag207
ag1661
asg729
(lp1931
g869
ag879
aS'BIZ'
p1932
ag730
ag731
ag732
aS'DIN'
p1933
ag464
ag465
ag475
ag508
ag385
ag428
ag429
ag430
ag431
ag432
ag107
ag187
ag188
ag189
ag190
ag191
asg1447
(lp1934
g729
ag869
ag879
ag1932
ag1448
ag1203
aS'DIM'
p1935
ag474
ag512
ag384
ag443
ag444
ag445
ag446
ag447
ag448
ag449
ag106
ag194
ag195
ag196
asg1349
(lp1936
g1227
ag1228
ag1184
ag1134
ag1350
ag537
ag570
ag584
ag152
ag237
ag238
ag202
ag170
ag216
asg1021
(lp1937
g1602
ag23
ag956
ag182
ag849
ag1022
asg1264
(lp1938
g1447
ag729
ag869
ag879
ag1932
ag1265
ag1266
ag1450
aS'DIG'
p1939
ag463
ag472
ag382
ag388
ag389
ag390
ag391
ag104
ag134
ag135
ag136
asg793
(lp1940
g1264
ag1447
ag729
ag869
ag879
ag1932
ag794
ag795
ag796
ag1457
aS'DID'
p1941
ag461
ag486
ag491
ag492
ag493
ag494
ag102
ag146
ag147
ag148
asS'ELM'
p1942
(lp1943
S'ELS'
p1944
ag1314
aS'EMM'
p1945
aS'OLM'
p1946
asg1414
(lp1947
g793
ag1264
ag1447
ag729
ag869
ag879
ag1932
ag1415
ag1416
ag1417
aS'DIB'
p1948
ag459
ag468
ag469
ag413
ag417
ag418
ag419
ag113
ag117
asg230
(lp1949
g168
ag603
ag867
asg1122
(lp1950
g157
ag236
ag765
ag1021
ag452
ag126
ag220
ag847
asg79
(lp1951
g1122
ag1123
ag157
ag236
ag765
ag1021
ag450
ag41
ag80
ag81
ag82
ag83
ag84
asg734
(lp1952
g882
ag1490
ag1492
ag837
ag1493
ag464
ag465
ag70
ag519
ag735
ag736
ag737
ag738
ag550
ag739
ag740
ag332
ag741
ag245
ag252
ag253
asg1060
(lp1953
g1064
ag79
ag1122
ag1123
ag157
ag236
ag765
ag1021
ag643
ag946
ag947
ag322
ag1061
asg1064
(lp1954
g79
ag1122
ag1123
ag157
ag236
ag765
ag1021
ag1041
ag1043
asg1932
(lp1955
g1559
ag911
asS'POH'
p1956
(lp1957
g1342
ag1060
ag1064
ag79
ag1122
ag1123
ag157
ag236
ag765
ag1021
ag951
asg425
(lp1958
g941
asg879
(lp1959
g1932
ag880
ag881
ag1170
ag1171
ag374
ag403
ag407
ag408
ag409
ag410
ag411
ag156
ag412
ag15
ag33
ag34
asg1101
(lp1960
g1956
ag1342
ag1060
ag1064
ag79
ag1122
ag1123
ag157
ag236
ag765
ag1021
ag37
ag743
ag279
ag957
ag958
ag959
asg1004
(lp1961
g987
ag1101
ag1956
ag1342
ag1060
ag1064
ag79
ag1122
ag1123
ag157
ag236
ag765
ag1021
ag908
ag1005
ag1006
ag115
ag1007
asg869
(lp1962
g879
ag1932
ag870
ag871
aS'DIS'
p1963
ag1461
ag714
ag13
ag14
ag1463
ag1464
ag29
asg1000
(lp1964
g1004
ag987
ag1101
ag1956
ag1342
ag1060
ag1064
ag79
ag1122
ag1123
ag157
ag236
ag765
ag1021
aS'PUA'
p1965
ag1692
ag299
ag1001
ag1002
asg1058
(lp1966
g71
ag503
ag1109
ag1110
ag1114
ag405
ag1615
ag755
ag1059
ag1060
ag946
ag947
ag322
ag1061
asg503
(lp1967
g1109
ag1110
ag1114
ag405
ag1615
ag1521
ag1783
ag345
ag846
ag1757
asg71
(lp1968
g503
ag1109
ag1110
ag1114
ag405
ag1615
ag507
ag458
ag72
ag73
ag74
ag75
ag76
ag77
ag78
ag79
ag41
ag80
ag81
ag82
ag83
ag84
asS'GOI'
p1969
(lp1970
g1058
ag71
ag503
ag1109
ag1110
ag1114
ag405
ag1615
aS'HOI'
p1971
ag1182
ag1341
ag1342
ag39
ag350
ag1343
asg1310
(lp1972
g1750
ag956
ag325
ag326
ag964
asg1413
(lp1973
g1402
ag1298
ag1256
ag1258
ag1259
ag1260
ag1261
ag1262
ag1263
ag1143
ag1145
ag1146
ag1147
ag1148
ag1149
ag1150
ag623
ag633
ag634
ag635
ag636
ag637
ag638
ag639
asS'ADZ'
p1974
(lp1975
S'ODZ'
p1976
asg1088
(lp1977
g1969
ag1058
ag71
ag503
ag1109
ag1110
ag1114
ag405
ag1615
ag1089
ag386
ag606
ag1090
ag986
ag38
ag133
ag177
ag178
ag179
asS'GOA'
p1978
(lp1979
g1072
ag488
ag489
ag1088
ag1969
ag1058
ag71
ag503
ag1109
ag1110
ag1114
ag405
ag1615
ag970
ag1369
ag1372
ag1373
ag997
ag1000
ag299
ag1001
ag1002
asg565
(lp1980
g679
ag566
ag338
ag298
ag567
asg1072
(lp1981
g488
ag489
ag1088
ag1969
ag1058
ag71
ag503
ag1109
ag1110
ag1114
ag405
ag1615
ag1073
ag415
ag416
ag1074
ag624
ag657
ag999
ag1004
ag1005
ag1006
ag115
ag1007
asg1428
(lp1982
sg405
(lp1983
g1615
ag406
ag1466
ag1189
ag685
ag686
ag1303
ag979
ag157
ag19
ag25
ag26
ag27
ag28
asg679
(lp1984
g680
ag681
ag682
asg1531
(lp1985
g1974
ag3
ag138
ag139
ag140
ag141
ag142
asg120
(lp1986
g1310
ag121
ag122
ag123
ag1292
asg1114
(lp1987
g405
ag1615
ag757
ag1115
ag1116
asg1109
(lp1988
g1114
ag405
ag1615
ag960
ag756
ag1111
ag1112
ag978
ag225
ag226
ag1036
asg548
(lp1989
g559
ag347
ag223
ag229
ag717
ag167
ag216
ag1043
asg620
(lp1990
g184
ag846
ag433
asg765
(lp1991
g1021
ag1666
ag22
ag210
ag211
asg1880
(lp1992
sg1750
(lp1993
g956
ag325
ag326
ag964
asg882
(lp1994
g1490
ag1492
ag837
ag1493
ag374
ag421
ag422
ag883
ag884
ag885
ag886
ag684
ag887
ag888
ag889
ag155
ag521
ag334
ag522
ag173
ag523
asg1287
(lp1995
g1551
aS'UPO'
p1996
ag933
asg236
(lp1997
g765
ag1021
ag21
ag955
ag215
ag1135
ag848
ag949
asg1515
(lp1998
g1524
ag1531
ag1974
ag48
ag50
ag51
ag52
ag53
ag54
ag55
ag56
ag57
ag58
ag59
ag60
ag61
aS'IDE'
p1999
aS'ODE'
p2000
asg168
(lp2001
g603
asS'GEZ'
p2002
(lp2003
g760
ag1892
ag526
asg1701
(lp2004
S'TCK'
p2005
asg700
(lp2006
g711
ag149
ag690
ag151
ag152
ag153
ag154
ag1736
ag401
ag1122
ag1123
ag452
ag311
ag368
ag217
ag222
ag223
asg626
(lp2007
g1302
ag610
ag587
ag544
ag552
ag553
ag699
ag709
ag688
ag584
ag665
ag1895
ag418
ag999
ag907
ag627
ag628
ag629
ag294
ag295
ag630
asg711
(lp2008
g149
ag690
ag151
ag152
ag153
ag154
ag864
ag865
ag381
ag239
ag242
ag369
ag219
ag228
ag229
ag230
asS'BAA'
p2009
(lp2010
g1411
ag1413
ag1402
ag1298
ag1256
ag1258
ag1259
ag1260
ag1261
ag1262
ag1263
ag1143
ag1145
ag1146
ag1147
ag1148
ag1149
ag1150
ag774
ag781
ag782
aS'NAA'
p2011
ag1704
ag292
asg151
(lp2012
g152
ag153
ag154
ag681
ag200
ag524
asg1674
(lp2013
g588
ag545
ag710
ag689
aS'OFF'
p2014
ag993
ag1163
ag1675
asg153
(lp2015
g154
ag440
ag765
ag1666
ag313
ag370
ag203
ag171
ag603
asg154
(lp2016
g1309
ag1021
ag1602
ag314
ag315
ag371
ag204
ag172
asg115
(lp2017
g110
ag43
ag743
ag133
ag951
ag952
ag946
ag947
ag80
ag81
ag126
ag25
ag953
ag954
ag955
ag956
ag116
ag1007
asg157
(lp2018
g236
ag765
ag1021
ag158
ag159
ag19
ag25
ag26
ag27
ag28
asg454
(lp2019
g221
ag227
ag206
ag1519
ag250
ag455
asg635
(lp2020
g598
ag692
ag705
ag546
ag547
ag554
ag555
ag700
ag711
ag149
ag690
ag151
ag152
ag153
ag154
ag1487
ag636
ag637
ag638
ag639
asg598
(lp2021
g692
ag705
ag546
ag547
ag554
ag555
ag700
ag711
ag149
ag690
ag151
ag152
ag153
ag154
ag803
ag987
ag640
ag599
ag600
ag256
ag296
ag271
ag272
ag273
asg319
(lp2022
g589
ag548
ag559
ag347
ag223
ag229
ag717
ag167
ag216
ag922
asg60
(lp2023
g61
asg692
(lp2024
g705
ag546
ag547
ag554
ag555
ag700
ag711
ag149
ag690
ag151
ag152
ag153
ag154
ag1956
ag303
ag317
ag318
ag319
asg705
(lp2025
g546
ag547
ag554
ag555
ag700
ag711
ag149
ag690
ag151
ag152
ag153
ag154
ag1060
ag643
ag361
ag362
ag263
ag264
ag323
asg546
(lp2026
g554
ag555
ag700
ag711
ag149
ag690
ag151
ag152
ag153
ag154
ag448
ag1064
ag307
ag308
ag363
ag364
ag265
ag548
asg554
(lp2027
g700
ag711
ag149
ag690
ag151
ag152
ag153
ag154
ag740
ag432
ag79
ag450
ag309
ag310
ag365
ag366
ag266
ag556
ag557
ag558
ag559
ag560
asg354
(lp2028
g323
ag556
ag557
ag716
ag164
ag524
ag1909
asg1827
(lp2029
S'MWA'
p2030
ag123
ag302
asg412
(lp2031
g441
ag19
ag24
ag15
ag33
ag34
asS'HSI'
p2032
(lp2033
g896
aS'PSI'
p2034
ag1722
asg710
(lp2035
g689
ag863
ag832
ag711
ag369
ag219
ag228
ag229
ag230
asg402
(lp2036
g412
ag441
ag108
ag128
ag129
ag130
ag131
asg1242
(lp2037
g1527
asg1246
(lp2038
g1242
ag1537
asg1232
(lp2039
g449
ag504
ag505
ag402
ag412
ag441
ag40
asg455
(lp2040
g31
asg391
(lp2041
g1232
ag449
ag504
ag505
ag402
ag412
ag441
ag38
ag176
ag104
ag134
ag135
ag136
asg59
(lp2042
g1246
ag1242
ag60
ag61
ag790
ag791
ag1317
asS'AWD'
p2043
(lp2044
g59
ag1246
ag1242
aS'OWD'
p2045
asg419
(lp2046
g1385
ag494
ag484
ag391
ag1232
ag449
ag504
ag505
ag402
ag412
ag441
ag1005
ag1006
ag909
ag113
ag117
asg545
(lp2047
g710
ag689
aS'OHM'
p2048
ag1946
ag546
ag547
ag307
ag308
ag363
ag364
ag265
ag548
asg99
(lp2049
g2043
ag59
ag1246
ag1242
ag1483
ag1827
ag2030
ag123
ag302
asg1128
(lp2050
g419
ag1385
ag494
ag484
ag391
ag1232
ag449
ag504
ag505
ag402
ag412
ag441
ag1129
ag118
ag124
asg1455
(lp2051
S'HAK'
p2052
ag1440
ag1432
ag1336
aS'HAO'
p2053
ag1155
ag1391
aS'HAU'
p2054
ag1348
ag1226
ag895
ag647
ag692
ag303
ag317
ag318
ag319
asg1664
(lp2055
g806
ag823
ag1911
ag1235
ag245
ag247
ag248
ag173
ag249
ag1007
asg1914
(lp2056
g1159
ag1161
ag1162
ag1015
ag1017
ag1018
ag1019
ag531
ag649
ag367
ag267
ag268
ag347
asg2052
(lp2057
g1440
ag1432
ag1336
ag2053
ag1155
ag1391
ag2054
ag1348
ag1226
ag897
ag577
ag578
ag587
ag588
ag360
ag589
ag590
asg1440
(lp2058
g1432
ag1336
ag2053
ag1155
ag1391
ag2054
ag1348
ag1226
ag648
ag705
ag361
ag362
ag263
ag264
ag323
asg1432
(lp2059
g1336
ag2053
ag1155
ag1391
ag2054
ag1348
ag1226
aS'HEM'
p2060
ag512
ag898
ag1433
ag1434
ag528
ag543
ag544
ag545
ag546
ag547
ag307
ag308
ag363
ag364
ag265
ag548
asg1336
(lp2061
g2053
ag1155
ag1391
ag2054
ag1348
ag1226
ag736
ag508
ag72
ag899
ag1337
ag1338
ag1339
ag530
ag551
ag552
ag553
ag554
ag555
ag309
ag310
ag365
ag366
ag266
ag556
ag557
ag558
ag559
ag560
asg2053
(lp2062
g1155
ag1391
ag2054
ag1348
ag1226
ag1914
ag531
ag649
ag367
ag267
ag268
ag347
asg552
(lp2063
g699
ag709
ag688
ag584
ag665
ag78
ag919
ag554
ag555
ag309
ag310
ag365
ag366
ag266
ag556
ag557
ag558
ag559
ag560
asg804
(lp2064
g820
ag821
ag1126
ag1127
ag316
ag752
ag1104
ag521
ag1083
ag1037
ag1085
ag494
ag35
ag988
ag42
ag269
ag270
ag806
ag807
ag808
asg798
(lp2065
g813
ag814
ag751
aS'GEM'
p2066
ag735
aS'GEO'
p2067
ag859
ag872
ag883
ag838
ag2002
ag486
ag488
ag489
ag490
ag800
ag801
ag595
ag802
ag803
ag804
ag805
ag269
ag270
ag806
ag807
ag808
asg1409
(lp2068
g1271
ag1455
ag2052
ag1440
ag1432
ag1336
ag2053
ag1155
ag1391
ag2054
ag1348
ag1226
ag1093
ag761
ag591
ag597
ag598
ag599
ag600
ag256
ag296
ag271
ag272
ag273
asS'OFO'
p2069
(lp2070
g1764
ag615
ag1880
asg1235
(lp2071
g245
ag247
ag248
ag173
ag249
ag196
asg1271
(lp2072
g1455
ag2052
ag1440
ag1432
ag1336
ag2053
ag1155
ag1391
ag2054
ag1348
ag1226
ag1089
ag894
ag1272
ag593
ag609
ag610
ag611
ag356
ag259
ag289
ag290
ag291
asg343
(lp2073
g180
ag345
ag346
ag620
asg1226
(lp2074
g839
ag1617
ag1227
ag1228
ag1229
ag1230
ag539
ag572
ag573
ag665
ag154
ag314
ag315
ag371
ag204
ag172
asg341
(lp2075
g808
ag825
ag753
ag253
ag1737
ag867
ag1001
ag1002
asg1552
(lp2076
g931
asg1764
(lp2077
g1682
ag994
ag854
asg173
(lp2078
g249
ag34
ag27
ag174
ag523
asg1155
(lp2079
g1391
ag2054
ag1348
ag1226
ag1739
ag396
ag1119
ag900
ag941
ag1156
ag1157
ag532
ag650
ag699
ag700
ag311
ag368
ag217
ag222
ag223
asg276
(lp2080
g343
ag344
ag180
ag278
ag279
ag280
ag65
asg544
(lp2081
g552
ag553
ag699
ag709
ag688
ag584
ag665
ag447
ag545
ag546
ag547
ag307
ag308
ag363
ag364
ag265
ag548
asg1391
(lp2082
g2054
ag1348
ag1226
ag884
ag407
ag1466
ag851
ag1392
ag1393
ag536
ag654
ag655
ag688
ag689
ag149
ag690
ag160
ag161
ag162
ag163
ag164
ag165
ag166
ag167
ag168
asg2054
(lp2083
g1348
ag1226
ag568
ag151
ag200
ag524
asg298
(lp2084
g276
ag277
ag343
ag344
ag180
ag299
ag300
ag301
ag302
ag567
asg1348
(lp2085
g1226
aS'HEW'
p2086
ag1133
ag1349
ag1350
ag537
ag570
ag584
ag152
ag237
ag238
ag202
ag170
ag216
asg560
(lp2087
g230
ag168
ag603
ag253
asg410
(lp2088
g1558
ag1559
ag685
ag686
ag687
ag411
ag156
ag412
ag15
ag33
ag34
asg1642
(lp2089
g616
ag681
ag1342
ag2034
ag1643
asg1566
(lp2090
g1537
ag105
ag321
asg616
(lp2091
g681
ag1193
ag617
ag618
ag619
ag343
ag344
ag620
asg590
(lp2092
g560
ag230
ag168
ag603
asg1565
(lp2093
g447
ag399
ag400
ag411
ag439
ag1497
ag1566
ag105
ag321
asg447
(lp2094
g399
ag400
ag411
ag439
ag448
ag449
ag106
ag194
ag195
ag196
asg418
(lp2095
g493
ag389
ag1565
ag447
ag399
ag400
ag411
ag439
ag999
ag907
ag419
ag113
ag117
asg64
(lp2096
g65
ag66
asg273
(lp2097
g291
ag590
ag560
ag230
ag168
ag603
ag808
asg397
(lp2098
g408
ag409
ag1120
ag398
ag399
ag400
ag401
ag402
ag108
ag128
ag129
ag130
ag131
asg824
(lp2099
g252
ag1710
ag1711
ag866
ag876
ag523
ag1187
ag1040
ag526
ag959
ag825
asg389
(lp2100
g1565
ag447
ag399
ag400
ag411
ag439
ag986
ag390
ag391
ag104
ag134
ag135
ag136
asg493
(lp2101
g389
ag1565
ag447
ag399
ag400
ag411
ag439
ag984
ag494
ag102
ag146
ag147
ag148
asg735
(lp2102
g2067
ag859
ag872
ag883
ag838
ag2002
ag475
ag71
ag507
ag458
ag736
ag737
ag738
ag550
ag739
ag740
ag332
ag741
ag245
ag252
ag253
asg221
(lp2103
g227
ag206
ag1519
ag942
asg439
(lp2104
g440
ag441
ag16
asg1641
(lp2105
g1844
ag1642
ag1643
asg2066
(lp2106
g735
ag2067
ag859
ag872
ag883
ag838
ag2002
ag474
ag510
ag511
ag456
ag2060
ag1212
ag1234
ag1235
asg443
(lp2107
g428
ag397
ag408
ag409
ag445
ag446
ag447
ag448
ag449
ag106
ag194
ag195
ag196
asg1593
(lp2108
g443
ag444
ag428
ag397
ag408
ag409
ag1059
ag231
ag703
ag704
ag1565
ag1566
ag105
ag321
asg398
(lp2109
g714
ag410
ag1558
ag1559
ag698
ag399
ag400
ag401
ag402
ag108
ag128
ag129
ag130
ag131
asg399
(lp2110
g411
ag439
ag401
ag402
ag108
ag128
ag129
ag130
ag131
asg252
(lp2111
g1710
ag1711
ag866
ag876
ag523
ag1187
ag1040
ag526
ag190
ag191
ag84
ag455
ag253
asg323
(lp2112
g556
ag557
ag716
ag164
ag524
ag1061
asg227
(lp2113
g206
ag1519
ag243
asg411
(lp2114
g439
ag979
ag853
ag156
ag412
ag15
ag33
ag34
asg584
(lp2115
g665
ag1186
ag981
ag152
ag237
ag238
ag202
ag170
ag216
asg1079
(lp2116
g1945
aS'EMU'
p2117
ag1080
ag768
ag769
ag790
ag791
ag516
ag1579
asS'AES'
p2118
(lp2119
g1816
ag1199
ag726
ag872
ag713
ag873
ag874
ag875
ag248
ag876
asS'AER'
p2120
(lp2121
g2118
aS'AIR'
p2122
ag725
ag858
ag859
ag860
ag861
ag707
ag862
ag863
ag864
ag865
ag333
ag247
ag866
ag867
asg688
(lp2123
g584
ag665
ag888
ag889
ag411
ag979
ag853
ag689
ag149
ag690
ag160
ag161
ag162
ag163
ag164
ag165
ag166
ag167
ag168
asg334
(lp2124
g335
ag336
ag337
ag15
ag25
ag522
ag173
ag523
asg614
(lp2125
g1783
ag615
ag616
ag617
ag618
ag619
ag343
ag344
ag620
asg1945
(lp2126
g2117
asg206
(lp2127
g1519
ag207
ag174
asg203
(lp2128
g204
ag210
ag1519
ag171
ag603
asg1353
(lp2129
S'DRY'
p2130
ag1192
ag995
ag1602
ag183
ag435
asg1749
(lp2131
g1310
ag1750
ag956
ag325
ag326
ag964
asg2117
(lp2132
g1846
ag1842
asg1031
(lp2133
g215
ag210
ag182
ag1032
asg753
(lp2134
g253
ag1737
ag867
asg278
(lp2135
g134
ag321
ag194
ag187
ag128
ag33
ag279
ag280
ag65
ag485
asg340
(lp2136
g807
ag824
ag252
ag1710
ag1711
ag866
ag876
ag523
ag1187
ag1040
ag526
ag341
asg1766
(lp2137
g1749
ag1767
ag1768
ag1722
ag925
asg1651
(lp2138
g1353
ag1190
ag1193
ag933
ag433
asg872
(lp2139
g883
ag838
ag2002
ag1114
ag757
ag713
ag873
ag874
ag875
ag248
ag876
asg859
(lp2140
g872
ag883
ag838
ag2002
ag1109
ag1110
ag960
ag756
ag860
ag861
ag707
ag862
ag863
ag864
ag865
ag333
ag247
ag866
ag867
asg248
(lp2141
g173
ag249
ag1464
ag876
asg835
(lp2142
g758
ag759
asg387
(lp2143
g427
ag831
ag852
ag607
ag608
ag904
ag642
ag176
ag287
ag722
asg762
(lp2144
g387
ag427
ag831
ag852
ag763
ag640
ag42
ag144
ag644
asg883
(lp2145
g838
ag2002
ag403
ag405
ag406
ag884
ag885
ag886
ag684
ag887
ag888
ag889
ag155
ag521
ag334
ag522
ag173
ag523
asg857
(lp2146
g871
ag881
ag835
ag1376
ag378
ag379
ag756
ag831
ag708
ag832
ag239
ag17
ag227
ag243
asg871
(lp2147
g881
ag835
ag757
ag827
ag241
ag828
ag829
ag31
asg838
(lp2148
g2002
ag1615
ag758
ag759
ag839
ag840
ag663
ag337
ag249
asg427
(lp2149
g831
ag852
ag918
ag919
ag450
ag453
ag186
ag454
ag250
ag455
asg582
(lp2150
g583
ag1186
ag235
ag335
ag214
ag1187
asg881
(lp2151
g835
ag1396
ag422
ag406
ag851
ag852
ag687
ag853
ag854
ag159
ag24
ag206
ag174
asg831
(lp2152
g852
ag708
ag832
ag239
ag17
ag227
ag243
asg1856
(lp2153
g582
ag1083
asg732
(lp2154
g857
ag871
ag881
ag835
ag1053
ag519
ag507
ag899
ag427
ag918
ag919
ag450
ag453
ag186
ag454
ag250
ag455
asg2005
(lp2155
sg813
(lp2156
g751
ag2066
ag735
ag2067
ag859
ag872
ag883
ag838
ag2002
ag478
ag480
ag815
ag816
ag817
ag818
ag819
ag820
ag821
ag330
ag275
ag822
ag823
ag824
ag825
asg1203
(lp2157
g732
ag857
ag871
ag881
ag835
ag1204
ag1063
ag1205
ag510
ag511
ag898
ag541
ag542
ag914
ag843
ag844
ag193
ag915
ag916
asg1417
(lp2158
g795
ag796
ag1266
ag1203
ag732
ag857
ag871
ag881
ag835
ag1444
ag1071
ag467
ag905
ag907
ag908
ag909
ag116
ag910
asg1464
(lp2159
g34
ag911
ag29
asg111
(lp2160
g146
ag278
ag134
ag321
ag194
ag187
ag128
ag33
ag112
asg2067
(lp2161
g859
ag872
ag883
ag838
ag2002
ag476
ag503
ag1883
ag1782
ag1628
ag1710
asg1266
(lp2162
g1203
ag732
ag857
ag871
ag881
ag835
ag1087
ag894
ag387
ag607
ag608
ag904
ag642
ag176
ag287
ag722
asg795
(lp2163
g1266
ag1203
ag732
ag857
ag871
ag881
ag835
ag1459
ag1092
ag499
ag490
ag761
ag762
ag763
ag640
ag42
ag144
ag644
asg751
(lp2164
g2066
ag735
ag2067
ag859
ag872
ag883
ag838
ag2002
ag473
ag1058
ag755
ag702
ag752
ag753
asg421
(lp2165
g1495
ag1132
ag437
aS'FOY'
p2166
ag422
ag405
ag1466
ag1189
ag685
ag686
ag1303
ag979
ag157
ag19
ag25
ag26
ag27
ag28
asg1495
(lp2167
g1132
ag437
ag2166
ag1138
ag1473
ag574
ag980
ag953
ag1031
ag1032
asg1132
(lp2168
g437
ag2166
ag1133
ag1134
ag696
ag583
ag981
ag236
ag21
ag955
ag215
ag1135
ag848
ag949
asg394
(lp2169
g376
ag377
ag421
ag1495
ag1132
ag437
ag2166
ag1119
ag1120
ag698
ag1121
ag1122
ag1123
ag126
ag220
ag847
asg873
(lp2170
g887
ag1856
ag582
ag1218
ag827
ag874
ag875
ag248
ag876
asg376
(lp2171
g421
ag1495
ag1132
ag437
ag2166
ag378
ag379
ag1109
ag1110
ag1111
ag1112
ag978
ag225
ag226
ag1036
asg359
(lp2172
g360
ag361
ag362
ag363
ag364
ag365
ag366
ag367
ag368
ag369
ag161
ag238
ag370
ag371
ag262
asg437
(lp2173
g2166
aS'HOX'
p2174
ag660
ag765
ag22
ag210
ag211
asg174
(lp2175
sg862
(lp2176
g873
ag887
ag1856
ag582
ag380
ag1112
ag863
ag864
ag865
ag333
ag247
ag866
ag867
asg1763
(lp2177
g1314
ag1764
asg2166
(lp2178
g1192
ag1615
ag1617
ag1595
ag664
ag1305
ag982
ag1021
ag23
ag956
ag182
ag849
ag1022
asg1757
(lp2179
sg498
(lp2180
g501
ag496
ag70
aS'FOO'
p2181
ag394
ag376
ag377
ag421
ag1495
ag1132
ag437
ag2166
ag499
ag488
ag489
ag1093
ag596
ag1094
ag984
ag987
ag35
ag988
ag43
ag44
ag45
ag46
ag47
asg501
(lp2182
g496
ag70
ag2181
ag394
ag376
ag377
ag421
ag1495
ag1132
ag437
ag2166
ag1097
ag1098
ag1099
ag1100
ag1101
ag37
ag743
ag279
ag957
ag958
ag959
asg496
(lp2183
g70
ag2181
ag394
ag376
ag377
ag421
ag1495
ag1132
ag437
ag2166
ag1088
ag1089
ag386
ag606
ag1090
ag986
ag38
ag133
ag177
ag178
ag179
asg466
(lp2184
g498
ag501
ag496
ag70
ag2181
ag394
ag376
ag377
ag421
ag1495
ag1132
ag437
ag2166
ag467
ag1072
ag1073
ag415
ag416
ag1074
ag624
ag657
ag999
ag1004
ag1005
ag1006
ag115
ag1007
asg164
(lp2185
g524
ag522
ag165
ag166
ag167
ag168
asg452
(lp2186
g239
ag241
ag159
ag127
ag221
ag942
asg70
(lp2187
g2181
ag394
ag376
ag377
ag421
ag1495
ag1132
ag437
ag2166
ag519
ag71
ag72
ag73
ag74
ag75
ag76
ag77
ag78
ag79
ag41
ag80
ag81
ag82
ag83
ag84
asg2181
(lp2188
g394
ag376
ag377
ag421
ag1495
ag1132
ag437
ag2166
ag1190
ag503
ag1521
ag1783
ag345
ag846
ag1757
asS'AND'
p2189
(lp2190
S'ANI'
p2191
ag1239
ag1240
ag670
ag141
ag2043
ag1744
ag1026
asg1305
(lp2192
g982
ag1021
ag23
ag956
ag182
ag849
ag1022
asg2034
(lp2193
g158
ag1722
asg92
(lp2194
g2189
ag2191
ag1239
ag1240
ag670
ag141
ag94
ag95
ag96
ag97
ag98
ag99
ag1011
ag1012
ag1477
asg1112
(lp2195
g1303
ag574
ag583
ag1305
ag978
ag225
ag226
ag1036
asg1239
(lp2196
g670
ag141
ag1241
ag1242
ag1013
asg1121
(lp2197
g1112
ag1303
ag574
ag583
ag1305
ag1122
ag1123
ag126
ag220
ag847
asg583
(lp2198
g1305
ag981
ag236
ag21
ag955
ag215
ag1135
ag848
ag949
asg2191
(lp2199
g1239
ag1240
ag670
ag141
ag1790
asg574
(lp2200
g583
ag1305
ag282
ag980
ag953
ag1031
ag1032
asg861
(lp2201
g886
ag1887
ag840
ag1111
ag707
ag862
ag863
ag864
ag865
ag333
ag247
ag866
ag867
asg670
(lp2202
g141
ag671
ag672
ag673
ag674
asg1479
(lp2203
g1682
ag992
ag1316
ag1317
asg1341
(lp2204
g76
ag77
ag1783
ag1121
ag1112
ag1303
ag574
ag583
ag1305
ag1342
ag39
ag350
ag1343
asg2014
(lp2205
g2069
ag1764
ag993
ag1163
asg1783
(lp2206
g1121
ag1112
ag1303
ag574
ag583
ag1305
ag345
ag846
ag1757
asg76
(lp2207
g1783
ag1121
ag1112
ag1303
ag574
ag583
ag1305
ag918
ag78
ag79
ag41
ag80
ag81
ag82
ag83
ag84
asg629
(lp2208
g636
ag637
ag600
ag356
ag317
ag358
ag359
ag360
ag361
ag362
ag363
ag364
ag365
ag366
ag367
ag368
ag369
ag161
ag238
ag370
ag371
ag113
ag115
ag116
ag294
ag295
ag630
asg916
(lp2209
sg657
(lp2210
g1094
ag1100
ag1090
ag1341
ag76
ag77
ag1783
ag1121
ag1112
ag1303
ag574
ag583
ag1305
ag999
ag1004
ag1005
ag1006
ag115
ag1007
asg682
(lp2211
g1174
ag953
ag1724
ag1774
ag1469
asg287
(lp2212
g352
ag915
ag454
ag221
ag227
ag206
ag1519
ag288
ag722
asg1090
(lp2213
g1341
ag76
ag77
ag1783
ag1121
ag1112
ag1303
ag574
ag583
ag1305
ag904
ag986
ag38
ag133
ag177
ag178
ag179
asg141
(lp2214
g142
ag1750
asg1100
(lp2215
g1090
ag1341
ag76
ag77
ag1783
ag1121
ag1112
ag1303
ag574
ag583
ag1305
ag1101
ag37
ag743
ag279
ag957
ag958
ag959
asg1094
(lp2216
g1100
ag1090
ag1341
ag76
ag77
ag1783
ag1121
ag1112
ag1303
ag574
ag583
ag1305
ag763
ag984
ag987
ag35
ag988
ag43
ag44
ag45
ag46
ag47
asg1842
(lp2217
g284
ag1716
asg1380
(lp2218
g1375
aS'COS'
p2219
ag1395
ag1384
aS'COX'
p2220
ag1352
aS'COZ'
p2221
ag1381
ag1382
ag1046
ag394
ag1119
ag1120
ag698
ag1121
ag1122
ag1123
ag126
ag220
ag847
asg2219
(lp2222
g1395
ag1384
ag2220
ag1352
ag2221
ag1049
ag1114
ag1115
ag1116
asg1375
(lp2223
g2219
ag1395
ag1384
ag2220
ag1352
ag2221
ag1376
ag1047
ag1048
ag376
ag377
ag1109
ag1110
ag1111
ag1112
ag978
ag225
ag226
ag1036
asg1395
(lp2224
g1384
ag2220
ag1352
ag2221
ag1396
ag1050
ag1051
ag421
ag405
ag1466
ag1189
ag685
ag686
ag1303
ag979
ag157
ag19
ag25
ag26
ag27
ag28
asg1384
(lp2225
g2220
ag1352
ag2221
ag1052
ag1132
ag1133
ag1134
ag696
ag583
ag981
ag236
ag21
ag955
ag215
ag1135
ag848
ag949
asg1291
(lp2226
g1255
ag1248
ag1826
ag972
ag1794
ag770
ag1827
ag120
ag1292
asg1352
(lp2227
g2221
ag1353
ag2166
ag1615
ag1617
ag1595
ag664
ag1305
ag982
ag1021
ag23
ag956
ag182
ag849
ag1022
asg2220
(lp2228
g1352
ag2221
ag437
ag2174
ag660
ag765
ag22
ag210
ag211
asg1248
(lp2229
g718
asg2221
(lp2230
sg1736
(lp2231
g864
ag865
ag875
ag155
ag235
ag401
ag1122
ag1123
ag452
ag1104
ag1711
ag1737
asg1255
(lp2232
g1248
ag1023
ag1025
asg864
(lp2233
g875
ag155
ag235
ag381
ag239
ag242
ag333
ag247
ag866
ag867
asg875
(lp2234
g155
ag235
ag241
ag248
ag876
asg1579
(lp2235
g1840
ag1842
ag929
ag1580
ag1581
asg740
(lp2236
g1736
ag864
ag865
ag875
ag155
ag235
ag432
ag79
ag450
ag332
ag741
ag245
ag252
ag253
asg1424
(lp2237
g766
ag1794
ag935
ag936
asg1633
(lp2238
g1451
ag1437
ag1329
ag1650
ag1380
ag1375
ag2219
ag1395
ag1384
ag2220
ag1352
ag2221
ag1634
ag1069
ag501
ag1097
ag1098
ag1099
ag1100
ag1101
ag37
ag743
ag279
ag957
ag958
ag959
asg1458
(lp2239
g1633
ag1451
ag1437
ag1329
ag1650
ag1380
ag1375
ag2219
ag1395
ag1384
ag2220
ag1352
ag2221
ag1459
ag1068
ag498
ag488
ag489
ag1093
ag596
ag1094
ag984
ag987
ag35
ag988
ag43
ag44
ag45
ag46
ag47
asg1451
(lp2240
g1437
ag1329
ag1650
ag1380
ag1375
ag2219
ag1395
ag1384
ag2220
ag1352
ag2221
ag1070
ag496
ag1088
ag1089
ag386
ag606
ag1090
ag986
ag38
ag133
ag177
ag178
ag179
asg803
(lp2241
g819
ag1863
ag1864
ag740
ag1736
ag864
ag865
ag875
ag155
ag235
ag987
ag640
ag804
ag805
ag269
ag270
ag806
ag807
ag808
asg819
(lp2242
g1863
ag1864
ag740
ag1736
ag864
ag865
ag875
ag155
ag235
ag483
ag1101
ag820
ag821
ag330
ag275
ag822
ag823
ag824
ag825
asg1863
(lp2243
g740
ag1736
ag864
ag865
ag875
ag155
ag235
ag390
ag642
ag1127
ag331
ag286
asg1437
(lp2244
g1329
ag1650
ag1380
ag1375
ag2219
ag1395
ag1384
ag2220
ag1352
ag2221
ag1054
ag1058
ag1059
ag1060
ag946
ag947
ag322
ag1061
asg1650
(lp2245
g1380
ag1375
ag2219
ag1395
ag1384
ag2220
ag1352
ag2221
ag1651
ag2181
ag503
ag1521
ag1783
ag345
ag846
ag1757
asg1329
(lp2246
g1650
ag1380
ag1375
ag2219
ag1395
ag1384
ag2220
ag1352
ag2221
ag1044
ag1057
ag67
ag70
ag71
ag72
ag73
ag74
ag75
ag76
ag77
ag78
ag79
ag41
ag80
ag81
ag82
ag83
ag84
asS'OLD'
p2247
(lp2248
g1281
ag1946
ag2045
asg1281
(lp2249
g1946
ag1475
ag1479
ag992
ag1316
ag1317
ag1282
asg1282
(lp2250
g718
ag720
ag1579
ag929
ag1580
ag1581
asg517
(lp2251
g715
ag197
ag62
ag64
ag65
ag66
asg9
(lp2252
sg1602
(lp2253
g183
ag435
asg1946
(lp2254
sg1483
(lp2255
g1827
ag2030
ag123
ag302
asg722
(lp2256
g916
asg123
(lp2257
g302
asg241
(lp2258
g159
ag828
ag829
ag31
asg1081
(lp2259
g1401
ag1082
asg946
(lp2260
g80
ag81
ag126
ag25
ag953
ag954
ag955
ag956
ag322
ag1061
asg66
(lp2261
g251
asg312
(lp2262
g160
ag237
ag313
ag314
ag315
ag828
ag716
ag255
ag717
asg884
(lp2263
g2086
aS'HEX'
p2264
ag839
ag407
ag1466
ag851
ag885
ag886
ag684
ag887
ag888
ag889
ag155
ag521
ag334
ag522
ag173
ag523
asg1682
(lp2265
g994
ag854
asg2086
(lp2266
g2264
ag839
ag1133
ag1184
ag694
ag695
ag582
ag1186
ag235
ag335
ag214
ag1187
asg1739
(lp2267
g860
ag884
ag2086
ag2264
ag839
ag396
ag1119
ag900
ag941
ag1740
ag1629
ag1630
ag1736
ag1104
ag1711
ag1737
asg860
(lp2268
g884
ag2086
ag2264
ag839
ag861
ag707
ag862
ag863
ag864
ag865
ag333
ag247
ag866
ag867
asS'OBI'
p2269
(lp2270
S'OII'
p2271
ag1010
aS'UBI'
p2272
asg345
(lp2273
g220
ag225
ag226
ag26
ag1031
ag215
ag210
ag182
ag346
ag846
ag1757
asg1675
(lp2274
g290
ag318
ag558
ag222
ag228
ag255
ag165
ag166
ag170
ag171
ag172
asg281
(lp2275
g1675
ag290
ag318
ag558
ag222
ag228
ag255
ag165
ag166
ag170
ag171
ag172
ag823
ag958
ag66
asg1517
(lp2276
g2269
ag2000
ag1281
ag1475
ag1479
ag992
ag1316
ag1317
asg2264
(lp2277
g839
ag2174
ag1887
ag659
ag1037
ag1085
ag336
ag1039
ag1040
asg839
(lp2278
g1617
ag840
ag663
ag337
ag249
asg289
(lp2279
g354
ag323
ag556
ag557
ag716
ag164
ag524
ag178
ag722
ag290
ag291
asg1472
(lp2280
g233
ag282
ag284
asg401
(lp2281
g381
ag156
ag440
ag1122
ag1123
ag452
ag402
ag108
ag128
ag129
ag130
ag131
asg172
(lp2282
g249
ag184
ag849
ag435
asg171
(lp2283
g172
ag603
asg170
(lp2284
g171
ag172
ag848
ag216
asg2060
(lp2285
g736
ag1739
ag860
ag884
ag2086
ag2264
ag839
ag512
ag898
ag1212
ag1234
ag1235
asg736
(lp2286
g1739
ag860
ag884
ag2086
ag2264
ag839
ag508
ag72
ag899
ag737
ag738
ag550
ag739
ag740
ag332
ag741
ag245
ag252
ag253
asg973
(lp2287
g1472
ag1371
ag975
ag300
ag926
asg255
(lp2288
g165
ag166
ag170
ag171
ag172
ag248
ag1464
ag717
asS'HEI'
p2289
(lp2290
g2060
ag736
ag1739
ag860
ag884
ag2086
ag2264
ag839
ag1971
ag2032
ag896
ag579
ag1627
ag1909
ag1911
asg222
(lp2291
g228
ag255
ag165
ag166
ag170
ag171
ag172
ag847
ag942
ag223
asg603
(lp2292
sg453
(lp2293
g828
ag24
ag209
ag186
ag454
ag250
ag455
asg322
(lp2294
g1041
ag82
ag345
ag220
ag225
ag226
ag26
ag1031
ag215
ag210
ag182
ag1061
asg843
(lp2295
g453
ag828
ag24
ag209
ag193
ag915
ag916
asg874
(lp2296
g1476
ag875
ag248
ag876
asg863
(lp2297
g874
ag832
ag864
ag865
ag333
ag247
ag866
ag867
asg187
(lp2298
g128
ag33
ag82
ag454
ag188
ag189
ag190
ag191
asg1129
(lp2299
g909
ag42
ag842
ag176
ag843
ag844
ag453
ag828
ag24
ag209
ag301
asg176
(lp2300
g843
ag844
ag453
ag828
ag24
ag209
ag287
ag722
asg1309
(lp2301
g1021
ag1602
ag1310
asg842
(lp2302
g176
ag843
ag844
ag453
ag828
ag24
ag209
ag62
ag744
ag745
ag280
asg349
(lp2303
g350
ag351
ag352
ag353
ag1552
asg209
(lp2304
g1519
asg313
(lp2305
g314
ag315
ag1037
ag1085
ag441
ag22
ag209
ag370
ag203
ag171
ag603
asg1477
(lp2306
g926
ag935
ag936
ag773
asg828
(lp2307
g24
ag209
ag829
ag31
asg161
(lp2308
g238
ag370
ag371
ag334
ag15
ag25
ag162
ag163
ag164
ag165
ag166
ag167
ag168
asg24
(lp2309
g209
ag206
ag174
asg624
(lp2310
g596
ag1562
ag606
ag1521
ag698
ag685
ag686
ag1473
ag696
ag660
ag664
ag657
ag999
ag1004
ag1005
ag1006
ag115
ag1007
asg1935
(lp2311
g1933
aS'DIP'
p2312
ag1963
ag1171
aS'DIV'
p2313
ag1056
ag1063
ag474
ag512
ag384
ag443
ag444
ag445
ag446
ag447
ag448
ag449
ag106
ag194
ag195
ag196
asg1933
(lp2314
g2312
ag1963
ag1171
ag2313
ag1044
ag1057
ag1053
ag464
ag465
ag475
ag508
ag385
ag428
ag429
ag430
ag431
ag432
ag107
ag187
ag188
ag189
ag190
ag191
asg1372
(lp2315
g624
ag596
ag1562
ag606
ag1521
ag698
ag685
ag686
ag1473
ag696
ag660
ag664
ag997
ag1000
ag299
ag1001
ag1002
asg1562
(lp2316
g606
ag1521
ag698
ag685
ag686
ag1473
ag696
ag660
ag664
asg1169
(lp2317
S'ARX'
p2318
ag375
ag438
ag439
ag440
ag441
ag16
asg596
(lp2319
g1562
ag606
ag1521
ag698
ag685
ag686
ag1473
ag696
ag660
ag664
ag1094
ag984
ag987
ag35
ag988
ag43
ag44
ag45
ag46
ag47
asS'GNU'
p2320
(lp2321
sg1941
(lp2322
S'DIE'
p2323
ag1939
ag1935
ag1933
ag2312
ag1963
ag1171
ag2313
ag1068
ag1092
ag461
ag486
ag491
ag492
ag493
ag494
ag102
ag146
ag147
ag148
asg2323
(lp2324
g1939
ag1935
ag1933
ag2312
ag1963
ag1171
ag2313
ag1069
ag1096
ag515
ag462
ag478
ag481
ag482
ag483
ag484
ag103
ag278
ag485
asg1019
(lp2325
sg1939
(lp2326
g1935
ag1933
ag2312
ag1963
ag1171
ag2313
ag1070
ag1087
ag463
ag472
ag382
ag388
ag389
ag390
ag391
ag104
ag134
ag135
ag136
asg1521
(lp2327
g698
ag685
ag686
ag1473
ag696
ag660
ag664
ag1803
ag1815
ag1783
ag345
ag846
ag1757
asg1948
(lp2328
g1941
ag2323
ag1939
ag1935
ag1933
ag2312
ag1963
ag1171
ag2313
ag1065
aS'DOB'
p2329
ag1071
ag459
ag468
ag469
ag413
ag417
ag418
ag419
ag113
ag117
asg2122
(lp2330
g667
ag1169
ag372
ag380
ag381
ag11
ag109
ag18
asg1918
(lp2331
g2122
ag667
ag1169
ag1919
ag1198
ag1447
ag1935
ag474
ag512
ag384
ag443
ag444
ag445
ag446
ag447
ag448
ag449
ag106
ag194
ag195
ag196
asg1922
(lp2332
g1918
ag2122
ag667
ag1169
ag1244
ag1246
ag473
ag1593
ag703
ag704
ag1565
ag1566
ag105
ag321
asg698
(lp2333
g685
ag686
ag1473
ag696
ag660
ag664
ag1121
ag1122
ag1123
ag126
ag220
ag847
asg696
(lp2334
g660
ag664
ag583
ag981
ag236
ag21
ag955
ag215
ag1135
ag848
ag949
asg685
(lp2335
g1473
ag696
ag660
ag664
ag687
ag1303
ag979
ag157
ag19
ag25
ag26
ag27
ag28
asg1473
(lp2336
g696
ag660
ag664
ag574
ag980
ag953
ag1031
ag1032
asg1171
(lp2337
g2313
ag1050
ag1051
ag374
ag403
ag407
ag408
ag409
ag410
ag411
ag156
ag412
ag15
ag33
ag34
asS'AID'
p2338
(lp2339
g1922
ag1918
ag2122
ag667
ag1169
ag2189
ag2043
ag793
ag1457
ag1941
ag461
ag486
ag491
ag492
ag493
ag494
ag102
ag146
ag147
ag148
asg2313
(lp2340
g1558
asg664
(lp2341
g1305
ag982
ag1021
ag23
ag956
ag182
ag849
ag1022
asg2312
(lp2342
g1963
ag1171
ag2313
ag1046
ag1118
ag392
ag395
ag396
ag397
ag398
ag399
ag400
ag401
ag402
ag108
ag128
ag129
ag130
ag131
asg1963
(lp2343
g1171
ag2313
ag1049
ag1461
ag714
ag13
ag14
ag1463
ag1464
ag29
asg737
(lp2344
g1740
ag861
ag886
ag1887
ag840
ag428
ag75
ag550
ag739
ag740
ag332
ag741
ag245
ag252
ag253
asg1537
(lp2345
g1527
asg110
(lp2346
g43
ag743
ag133
ag951
ag952
ag946
ag947
ag80
ag81
ag126
ag25
ag953
ag954
ag955
ag956
asg1223
(lp2347
g837
ag1308
ag2166
ag1192
ag1225
ag1226
ag1227
ag1228
ag1229
ag1230
ag539
ag572
ag573
ag665
ag154
ag314
ag315
ag371
ag204
ag172
asg597
(lp2348
g646
ag609
ag647
ag648
ag543
ag551
ag649
ag650
ag651
ag652
ag653
ag654
ag655
ag568
ag570
ag571
ag572
ag573
ag492
ag1094
ag763
ag598
ag599
ag600
ag256
ag296
ag271
ag272
ag273
asg1546
(lp2349
g2002
ag760
ag540
asg1225
(lp2350
g1546
ag838
ag1615
ag758
ag759
ag1226
ag1227
ag1228
ag1229
ag1230
ag539
ag572
ag573
ag665
ag154
ag314
ag315
ag371
ag204
ag172
asg1358
(lp2351
g1389
ag1223
ag1224
ag372
ag376
ag377
ag378
ag379
ag1359
ag1360
ag533
ag534
ag651
ag652
ag709
ag710
ag711
ag369
ag219
ag228
ag229
ag230
asg2045
(lp2352
g1317
ag1535
ag1537
ag1527
asg1685
(lp2353
g1347
ag1225
ag1546
ag2320
ag2054
ag568
ag151
ag200
ag524
asg1390
(lp2354
g1685
ag1347
ag1225
ag1546
ag883
ag403
ag405
ag406
ag1391
ag1392
ag1393
ag536
ag654
ag655
ag688
ag689
ag149
ag690
ag160
ag161
ag162
ag163
ag164
ag165
ag166
ag167
ag168
asg1363
(lp2355
g1390
ag1685
ag1347
ag1225
ag1546
ag872
ag1114
ag757
ag535
ag653
ag312
ag716
ag255
ag717
asg1359
(lp2356
g1363
ag1390
ag1685
ag1347
ag1225
ag1546
ag859
ag1109
ag1110
ag960
ag756
ag1360
ag533
ag534
ag651
ag652
ag709
ag710
ag711
ag369
ag219
ag228
ag229
ag230
asg1389
(lp2357
g1223
ag1224
ag882
ag374
ag421
ag422
ag1390
ag1391
ag1392
ag1393
ag536
ag654
ag655
ag688
ag689
ag149
ag690
ag160
ag161
ag162
ag163
ag164
ag165
ag166
ag167
ag168
asg1154
(lp2358
g1359
ag1363
ag1390
ag1685
ag1347
ag1225
ag1546
ag395
ag424
ag425
ag1155
ag1156
ag1157
ag532
ag650
ag699
ag700
ag311
ag368
ag217
ag222
ag223
asg1335
(lp2359
g1154
ag1359
ag1363
ag1390
ag1685
ag1347
ag1225
ag1546
ag735
ag475
ag71
ag507
ag458
ag1336
ag1337
ag1338
ag1339
ag530
ag551
ag552
ag553
ag554
ag555
ag309
ag310
ag365
ag366
ag266
ag556
ag557
ag558
ag559
ag560
asg1431
(lp2360
g1335
ag1154
ag1359
ag1363
ag1390
ag1685
ag1347
ag1225
ag1546
ag2066
ag474
ag510
ag511
ag456
ag1432
ag1433
ag1434
ag528
ag543
ag544
ag545
ag546
ag547
ag307
ag308
ag363
ag364
ag265
ag548
asg1439
(lp2361
g1431
ag1335
ag1154
ag1359
ag1363
ag1390
ag1685
ag1347
ag1225
ag1546
ag751
ag473
ag1058
ag755
ag1440
ag648
ag705
ag361
ag362
ag263
ag264
ag323
asg1333
(lp2362
g1358
ag1389
ag1223
ag1224
ag734
ag464
ag465
ag70
ag519
ag1335
ag1336
ag1337
ag1338
ag1339
ag530
ag551
ag552
ag553
ag554
ag555
ag309
ag310
ag365
ag366
ag266
ag556
ag557
ag558
ag559
ag560
asg1684
(lp2363
g1439
ag1431
ag1335
ag1154
ag1359
ag1363
ag1390
ag1685
ag1347
ag1225
ag1546
ag1673
ag305
ag306
ag359
ag262
asg955
(lp2364
g956
ag215
ag1135
ag848
ag949
asg1430
(lp2365
g1333
ag1334
ag1358
ag1389
ag1223
ag1224
ag1205
ag1431
ag1432
ag1433
ag1434
ag528
ag543
ag544
ag545
ag546
ag547
ag307
ag308
ag363
ag364
ag265
ag548
asg1270
(lp2366
g1684
ag1439
ag1431
ag1335
ag1154
ag1359
ag1363
ag1390
ag1685
ag1347
ag1225
ag1546
ag472
ag1088
ag1271
ag1272
ag593
ag609
ag610
ag611
ag356
ag259
ag289
ag290
ag291
asg1407
(lp2367
g1270
ag1684
ag1439
ag1431
ag1335
ag1154
ag1359
ag1363
ag1390
ag1685
ag1347
ag1225
ag1546
ag798
ag799
ag486
ag488
ag489
ag490
ag1409
ag591
ag597
ag598
ag599
ag600
ag256
ag296
ag271
ag272
ag273
asg1269
(lp2368
g1430
ag1333
ag1334
ag1358
ag1389
ag1223
ag1224
ag463
ag496
ag1270
ag1271
ag1272
ag593
ag609
ag610
ag611
ag356
ag259
ag289
ag290
ag291
asg1406
(lp2369
g1301
ag1269
ag1430
ag1333
ag1334
ag1358
ag1389
ag1223
ag1224
ag797
ag461
ag498
ag499
ag1407
ag1408
ag1409
ag591
ag597
ag598
ag599
ag600
ag256
ag296
ag271
ag272
ag273
asg1301
(lp2370
g1269
ag1430
ag1333
ag1334
ag1358
ag1389
ag1223
ag1224
ag812
ag462
ag501
ag646
ag1302
ag258
ag281
asg84
(lp2371
g1036
ag28
ag1032
ag949
ag211
ag1022
ag455
asg318
(lp2372
g558
ag222
ag228
ag255
ag165
ag166
ag170
ag171
ag172
ag319
asg933
(lp2373
g934
ag284
ag433
asg1554
(lp2374
g1043
ag84
ag1036
ag28
ag1032
ag949
ag211
ag1022
asg1343
(lp2375
g1554
ag1043
ag84
ag1036
ag28
ag1032
ag949
ag211
ag1022
asg1581
(lp2376
g1716
asg959
(lp2377
g1343
ag1554
ag1043
ag84
ag1036
ag28
ag1032
ag949
ag211
ag1022
asg931
(lp2378
g932
ag933
ag934
ag284
asg979
(lp2379
g980
ag981
ag982
ag853
ag157
ag19
ag25
ag26
ag27
ag28
asg271
(lp2380
g281
ag1675
ag290
ag318
ag558
ag222
ag228
ag255
ag165
ag166
ag170
ag171
ag172
ag806
ag147
ag47
ag644
ag272
ag273
asg1382
(lp2381
g425
ag941
asg1022
(lp2382
sg1716
(lp2383
sg949
(lp2384
g211
ag1022
asg972
(lp2385
g1401
ag1025
ag1794
ag770
ag1827
ag973
ag974
ag975
ag300
ag926
asg1032
(lp2386
g949
ag211
ag1022
asg69
(lp2387
g458
ag251
asg1401
(lp2388
g1025
ag992
ag929
asg981
(lp2389
g982
ag236
ag21
ag955
ag215
ag1135
ag848
ag949
asg672
(lp2390
g677
ag2318
ag142
ag674
ag994
asg677
(lp2391
g2318
ag142
ag678
ag1472
ag282
ag284
asg1512
(lp2392
g1285
asg284
(lp2393
g1716
asg2318
(lp2394
g142
asg142
(lp2395
g1353
ag2130
ag1192
ag995
ag1602
ag183
ag435
asg321
(lp2396
g194
ag187
ag128
ag33
ag322
asg987
(lp2397
g1101
ag1956
ag1342
ag1060
ag1064
ag79
ag1122
ag1123
ag157
ag236
ag765
ag1021
ag640
ag35
ag988
ag43
ag44
ag45
ag46
ag47
asg95
(lp2398
S'ARC'
p2399
ag54
ag1252
ag1919
ag1241
ag7
ag672
ag673
ag677
ag2318
ag142
ag96
ag97
ag98
ag99
ag782
ag1422
ag1425
ag970
ag972
ag973
ag974
ag975
ag300
ag926
asg2399
(lp2400
g54
ag1252
ag1919
ag1241
ag7
ag672
ag673
ag677
ag2318
ag142
ag991
asg54
(lp2401
g1252
ag1919
ag1241
ag7
ag672
ag673
ag677
ag2318
ag142
ag55
ag56
ag57
ag58
ag59
ag60
ag61
ag1080
ag1401
ag992
ag929
asg458
(lp2402
g425
ag251
asg1252
(lp2403
g1919
ag1241
ag7
ag672
ag673
ag677
ag2318
ag142
ag1253
ag1196
ag1197
ag1025
asg299
(lp2404
g44
ag45
ag279
ag177
ag350
ag322
ag1041
ag82
ag345
ag220
ag225
ag226
ag26
ag1031
ag215
ag210
ag182
ag300
ag301
ag302
ag1001
ag1002
asg1919
(lp2405
g1241
ag7
ag672
ag673
ag677
ag2318
ag142
ag1198
asg1241
(lp2406
g7
ag672
ag673
ag677
ag2318
ag142
ag1242
ag932
asg7
(lp2407
g672
ag673
ag677
ag2318
ag142
ag8
ag9
ag1651
ag1190
ag1193
ag933
ag433
asg2130
(lp2408
g1192
ag995
ag1602
ag183
ag435
asg834
(lp2409
g835
ag1352
ag2166
ag1615
ag1617
ag1595
ag664
ag1305
ag982
ag1021
ag23
ag956
ag182
ag849
ag1022
asg2011
(lp2410
g626
ag1302
ag610
ag587
ag544
ag552
ag553
ag699
ag709
ag688
ag584
ag665
ag786
ag997
ag1704
ag292
asg610
(lp2411
g587
ag544
ag552
ag553
ag699
ag709
ag688
ag584
ag665
ag389
ag986
ag611
ag356
ag259
ag289
ag290
ag291
asg1302
(lp2412
g610
ag587
ag544
ag552
ag553
ag699
ag709
ag688
ag584
ag665
ag818
ag197
ag258
ag281
asg1151
(lp2413
g856
ag870
ag880
ag1345
ag834
ag1380
ag1046
ag394
ag1119
ag1120
ag698
ag1121
ag1122
ag1123
ag126
ag220
ag847
asg587
(lp2414
g544
ag552
ag553
ag699
ag709
ag688
ag584
ag665
ag588
ag360
ag589
ag590
asg856
(lp2415
g870
ag880
ag1345
ag834
ag857
ag1375
ag1047
ag1048
ag376
ag377
ag1109
ag1110
ag1111
ag1112
ag978
ag225
ag226
ag1036
asg870
(lp2416
g880
ag1345
ag834
ag871
ag2219
ag1049
ag1114
ag1115
ag1116
asg880
(lp2417
g1345
ag834
ag881
ag1395
ag1050
ag1051
ag421
ag405
ag1466
ag1189
ag685
ag686
ag1303
ag979
ag157
ag19
ag25
ag26
ag27
ag28
asg1345
(lp2418
g834
ag1384
ag1052
ag1132
ag1133
ag1134
ag696
ag583
ag981
ag236
ag21
ag955
ag215
ag1135
ag848
ag949
asg709
(lp2419
g688
ag584
ag665
ag978
ag710
ag711
ag369
ag219
ag228
ag229
ag230
asg194
(lp2420
g187
ag128
ag33
ag1041
ag915
ag195
ag196
asg699
(lp2421
g709
ag688
ag584
ag665
ag1629
ag1630
ag399
ag400
ag700
ag311
ag368
ag217
ag222
ag223
asg689
(lp2422
g1764
ag1682
ag994
ag854
ag149
ag690
ag160
ag161
ag162
ag163
ag164
ag165
ag166
ag167
ag168
asg558
(lp2423
g222
ag228
ag255
ag165
ag166
ag170
ag171
ag172
ag245
ag188
ag189
ag83
ag250
ag251
ag559
ag560
asg1448
(lp2424
g730
ag731
ag968
ag1151
ag856
ag870
ag880
ag1345
ag834
ag1203
ag1056
ag1064
ag1041
ag1043
asg730
(lp2425
g968
ag1151
ag856
ag870
ag880
ag1345
ag834
ag732
ag1329
ag1044
ag1057
ag67
ag70
ag71
ag72
ag73
ag74
ag75
ag76
ag77
ag78
ag79
ag41
ag80
ag81
ag82
ag83
ag84
asg968
(lp2426
g1151
ag856
ag870
ag880
ag1345
ag834
ag1650
ag2181
ag503
ag1521
ag1783
ag345
ag846
ag1757
asg146
(lp2427
g278
ag134
ag321
ag194
ag187
ag128
ag33
ag44
ag45
ag147
ag148
asg781
(lp2428
g1415
ag1416
ag794
ag1265
ag1448
ag730
ag731
ag968
ag1151
ag856
ag870
ag880
ag1345
ag834
ag782
ag1978
ag1369
ag1372
ag1373
ag997
ag1000
ag299
ag1001
ag1002
asg1415
(lp2429
g794
ag1265
ag1448
ag730
ag731
ag968
ag1151
ag856
ag870
ag880
ag1345
ag834
ag1417
ag1443
ag1065
ag2329
ag466
ag1072
ag1073
ag415
ag416
ag1074
ag624
ag657
ag999
ag1004
ag1005
ag1006
ag115
ag1007
asg665
(lp2430
g982
ag154
ag314
ag315
ag371
ag204
ag172
asg794
(lp2431
g1265
ag1448
ag730
ag731
ag968
ag1151
ag856
ag870
ag880
ag1345
ag834
ag795
ag796
ag1458
ag1068
ag498
ag488
ag489
ag1093
ag596
ag1094
ag984
ag987
ag35
ag988
ag43
ag44
ag45
ag46
ag47
asg117
(lp2432
g111
ag146
ag278
ag134
ag321
ag194
ag187
ag128
ag33
ag910
asg1265
(lp2433
g1448
ag730
ag731
ag968
ag1151
ag856
ag870
ag880
ag1345
ag834
ag1266
ag1451
ag1070
ag496
ag1088
ag1089
ag386
ag606
ag1090
ag986
ag38
ag133
ag177
ag178
ag179
asg2048
(lp2434
g615
ag1946
asg615
(lp2435
g1880
ag616
ag617
ag618
ag619
ag343
ag344
ag620
asg448
(lp2436
g432
ag401
ag381
ag156
ag440
ag1064
ag449
ag106
ag194
ag195
ag196
asg432
(lp2437
g401
ag381
ag156
ag440
ag79
ag450
ag107
ag187
ag188
ag189
ag190
ag191
asg715
(lp2438
sg1484
(lp2439
g1487
ag483
ag390
ag1525
ag448
ag432
ag401
ag381
ag156
ag440
ag1000
ag1965
ag1692
ag1128
ag118
ag124
asg1487
(lp2440
g483
ag390
ag1525
ag448
ag432
ag401
ag381
ag156
ag440
ag1385
ag100
ag111
ag112
asg680
(lp2441
g1138
ag1472
ag233
ag681
ag682
asg390
(lp2442
g1525
ag448
ag432
ag401
ag381
ag156
ag440
ag642
ag391
ag104
ag134
ag135
ag136
asg440
(lp2443
g765
ag1666
ag441
ag16
asg73
(lp2444
g74
ag75
ag76
ag77
ag78
ag79
ag41
ag80
ag81
ag82
ag83
ag84
asg929
(lp2445
g930
ag931
ag932
ag933
ag934
ag284
ag1580
ag1581
asg1965
(lp2446
g908
ag640
ag642
ag643
ag450
ag452
ag239
ag241
ag159
ag1692
ag1293
ag1129
ag301
asS'MYA'
p2447
(lp2448
g1692
asg566
(lp2449
g680
ag1369
ag973
ag974
ag1371
ag338
ag298
ag567
asg381
(lp2450
g156
ag440
ag239
ag242
ag11
ag109
ag18
asg156
(lp2451
g440
ag157
ag158
ag159
ag412
ag15
ag33
ag34
asg1104
(lp2452
g521
ag1083
ag1037
ag1085
ag402
ag1711
ag1737
asg235
(lp2453
g236
ag335
ag214
ag1187
asS'UCA'
p2454
(lp2455
g1292
ag1477
ag926
ag935
ag936
ag773
asg1342
(lp2456
g1060
ag1064
ag79
ag1122
ag1123
ag157
ag236
ag765
ag1021
ag2034
ag39
ag350
ag1343
asg188
(lp2457
g18
ag1464
ag34
ag911
ag83
ag250
ag251
ag190
ag191
asg18
(lp2458
g1464
ag34
ag911
ag243
asg676
(lp2459
g677
ag678
asg44
(lp2460
g279
ag177
ag350
ag322
ag1041
ag82
ag345
ag220
ag225
ag226
ag26
ag1031
ag215
ag210
ag182
ag46
ag47
asg1010
(lp2461
g1766
asg200
(lp2462
g201
ag202
ag203
ag204
ag1031
ag524
asg2271
(lp2463
g1566
ag1010
asg681
(lp2464
g682
asg1222
(lp2465
g836
ag2130
ag1223
ag1224
ag1225
ag1226
ag1227
ag1228
ag1229
ag1230
ag539
ag572
ag573
ag665
ag154
ag314
ag315
ag371
ag204
ag172
asg1443
(lp2466
g1458
ag1633
ag1451
ag1437
ag1329
ag1650
ag1380
ag1375
ag2219
ag1395
ag1384
ag2220
ag1352
ag2221
ag1444
ag1065
ag2329
ag466
ag1072
ag1073
ag415
ag416
ag1074
ag624
ag657
ag999
ag1004
ag1005
ag1006
ag115
ag1007
asg279
(lp2467
g177
ag350
ag322
ag1041
ag82
ag345
ag220
ag225
ag226
ag26
ag1031
ag215
ag210
ag182
ag280
ag65
ag957
ag958
ag959
asg630
(lp2468
g638
ag271
ag281
ag1675
ag290
ag318
ag558
ag222
ag228
ag255
ag165
ag166
ag170
ag171
ag172
ag1664
ag1007
asg65
(lp2469
g288
ag207
ag66
asg242
(lp2470
g1666
asg1308
(lp2471
g2166
ag1192
ag1309
ag1310
asg836
(lp2472
g2130
ag837
ag838
ag839
ag840
ag663
ag337
ag249
asg288
(lp2473
g207
asg13
(lp2474
g15
ag16
ag829
ag1463
ag1464
ag29
asg1494
(lp2475
g1308
ag1495
ag720
asS'DEV'
p2476
(lp2477
S'DEW'
p2478
ag836
ag2313
aS'LEV'
p2479
ag1856
ag1083
asg858
(lp2480
g1364
ag859
ag860
ag861
ag707
ag862
ag863
ag864
ag865
ag333
ag247
ag866
ag867
asg750
(lp2481
g858
ag1247
ag751
ag702
ag752
ag753
asg2030
(lp2482
g2447
ag123
ag302
asS'ICH'
p2483
(lp2484
S'ICY'
p2485
ag1698
ag1701
asg749
(lp2486
g733
ag2476
ag2478
ag836
ag1054
ag750
ag751
ag702
ag752
ag753
asg733
(lp2487
g2476
ag2478
ag836
ag1933
ag1044
ag1057
ag1053
ag734
ag735
ag736
ag737
ag738
ag550
ag739
ag740
ag332
ag741
ag245
ag252
ag253
asg643
(lp2488
g450
ag452
ag239
ag241
ag159
asg1073
(lp2489
g1093
ag1097
ag1089
ag1971
ag72
ag1119
ag1466
ag1133
ag2174
ag1617
ag905
ag415
ag416
ag1074
ag624
ag657
ag999
ag1004
ag1005
ag1006
ag115
ag1007
asS'DEB'
p2490
(lp2491
g811
ag1861
ag749
ag733
ag2476
ag2478
ag836
ag1948
ag1065
ag2329
ag1071
ag1893
ag1895
ag1125
ag1664
asg195
(lp2492
g129
ag1463
ag916
ag196
asg88
(lp2493
g50
ag5
ag676
ag90
ag91
ag92
ag93
ag94
ag95
ag96
ag97
ag98
ag99
ag1008
asg1861
(lp2494
g749
ag733
ag2476
ag2478
ag836
ag1939
ag1070
ag1087
ag1862
ag605
ag1771
ag1863
ag1864
ag1127
ag331
ag286
asS'AMI'
p2495
(lp2496
g669
ag139
ag140
ag2191
ag1790
ag1844
asg39
(lp2497
g40
ag41
ag19
ag21
ag22
ag23
ag350
ag1343
asg40
(lp2498
g41
ag19
ag21
ag22
ag23
ag952
ag1554
asg41
(lp2499
g19
ag21
ag22
ag23
ag453
ag80
ag81
ag82
ag83
ag84
asg1463
(lp2500
g1464
ag29
asg91
(lp2501
g52
ag2495
aS'AMI'
p2502
ag669
ag139
ag140
ag92
ag93
ag94
ag95
ag96
ag97
ag98
ag99
ag1826
ag121
asg1005
(lp2503
g1076
ag35
ag988
ag37
ag38
ag39
ag40
ag41
ag19
ag21
ag22
ag23
ag909
ag115
ag1007
asg1076
(lp2504
g35
ag988
ag37
ag38
ag39
ag40
ag41
ag19
ag21
ag22
ag23
ag110
asg52
(lp2505
g2495
ag2502
ag669
ag139
ag140
ag53
ag54
ag55
ag56
ag57
ag58
ag59
ag60
ag61
ag1079
ag1579
asg37
(lp2506
g38
ag39
ag40
ag41
ag19
ag21
ag22
ag23
ag842
ag62
ag743
ag279
ag957
ag958
ag959
asg787
(lp2507
g803
ag819
ag1863
ag1864
ag740
ag1736
ag864
ag865
ag875
ag155
ag235
ag1484
ag1485
ag1000
ag1965
ag1692
ag788
ag327
ag297
ag339
ag340
ag341
asg139
(lp2508
g141
ag142
asg23
(lp2509
g956
ag182
ag849
ag1022
asg1050
(lp2510
g1052
ag421
ag405
ag1466
ag1189
ag685
ag686
ag1303
ag979
ag157
ag19
ag25
ag26
ag27
ag28
asg716
(lp2511
g164
ag524
ag1463
ag255
ag717
asg488
(lp2512
g1088
ag1969
ag1058
ag71
ag503
ag1109
ag1110
ag1114
ag405
ag1615
ag490
ag1093
ag596
ag1094
ag984
ag987
ag35
ag988
ag43
ag44
ag45
ag46
ag47
asg1320
(lp2513
g1316
asg820
(lp2514
g1126
ag1127
ag316
ag752
ag1104
ag521
ag1083
ag1037
ag1085
ag1635
ag484
ag37
ag842
ag62
ag330
ag275
ag822
ag823
ag824
ag825
asg1316
(lp2515
g1317
ag1580
asg669
(lp2516
g139
ag140
ag670
ag671
ag672
ag673
ag674
asg21
(lp2517
g22
ag23
ag955
ag215
ag1135
ag848
ag949
asg351
(lp2518
g183
ag352
ag353
ag931
asg1996
(lp2519
g933
asg1317
(lp2520
g1535
ag1537
ag1527
asg823
(lp2521
g1911
ag1235
ag245
ag247
ag248
ag173
ag249
ag958
ag66
ag824
ag825
asg300
(lp2522
g351
ag183
ag301
ag302
ag926
asg790
(lp2523
g516
ag1317
asg183
(lp2524
g435
asg1551
(lp2525
g934
asg849
(lp2526
g435
ag1022
asg1135
(lp2527
g848
ag949
asg720
(lp2528
g1842
ag284
ag1716
asS'ADD'
p2529
(lp2530
g1515
ag1516
ag1524
ag1531
ag1974
ag2338
ag2189
ag2043
aS'ODD'
p2531
asg567
(lp2532
g620
ag184
asg46
(lp2533
g957
ag178
ag1061
ag1135
ag47
asg957
(lp2534
g178
ag1061
ag1135
ag958
ag959
asg178
(lp2535
g1061
ag1135
ag722
ag179
asg339
(lp2536
g1664
ag806
ag823
ag1911
ag1235
ag245
ag247
ag248
ag173
ag249
ag567
ag340
ag341
asg770
(lp2537
g1543
ag1827
ag771
ag772
ag773
asg33
(lp2538
g26
ag205
ag206
ag207
ag34
asg876
(lp2539
g523
ag1187
ag1040
ag526
ag29
ag31
asg1061
(lp2540
g1135
asg2485
(lp2541
g1543
asg2272
(lp2542
g1549
ag1552
ag931
asg8
(lp2543
g9
asg57
(lp2544
g8
ag59
ag60
ag61
ag768
ag769
asg98
(lp2545
g57
ag58
ag8
ag99
ag766
ag770
ag771
ag772
ag773
asg1628
(lp2546
g1629
ag1630
ag888
ag889
ag1186
ag1710
asg744
(lp2547
g925
ag938
ag193
ag186
ag127
ag17
ag829
ag1469
ag1470
ag64
ag280
asg144
(lp2548
g744
ag745
ag925
ag938
ag193
ag186
ag127
ag17
ag829
ag1469
ag1470
ag145
ag644
asg367
(lp2549
g368
ag369
ag161
ag238
ag370
ag371
ag618
ag619
ag267
ag268
ag347
asg116
(lp2550
g144
ag744
ag745
ag925
ag938
ag193
ag186
ag127
ag17
ag829
ag1469
ag1470
ag910
asg1514
(lp2551
S'ACH'
p2552
aS'ACT'
p2553
ag1515
ag1516
ag48
ag50
ag51
ag52
ag53
ag54
ag55
ag56
ag57
ag58
ag59
ag60
ag61
aS'ICE'
p2554
asg1627
(lp2555
g1628
ag1629
ag1630
ag888
ag889
ag1186
ag1909
ag1911
asg1214
(lp2556
g1627
ag1628
ag1629
ag1630
ag888
ag889
ag1186
ag1126
asg186
(lp2557
g127
ag17
ag829
ag1469
ag1470
ag454
ag250
ag455
asg802
(lp2558
g818
ag1214
ag1627
ag1628
ag1629
ag1630
ag888
ag889
ag1186
ag493
ag984
ag803
ag804
ag805
ag269
ag270
ag806
ag807
ag808
asg2552
(lp2559
g2553
ag1832
ag1194
ag2483
ag1698
ag1701
asg1895
(lp2560
g802
ag818
ag1214
ag1627
ag1628
ag1629
ag1630
ag888
ag889
ag1186
ag418
ag999
ag907
ag1125
ag1664
asg1700
(lp2561
g1535
ag2005
asg925
(lp2562
g938
ag193
ag186
ag127
ag17
ag829
ag1469
ag1470
ag352
asg786
(lp2563
g1895
ag802
ag818
ag1214
ag1627
ag1628
ag1629
ag1630
ag888
ag889
ag1186
ag997
ag787
ag788
ag327
ag297
ag339
ag340
ag341
asg1161
(lp2564
g1162
ag1015
ag1017
ag1018
ag1019
ag1287
asg1469
(lp2565
g1470
asg358
(lp2566
g359
ag360
ag361
ag362
ag363
ag364
ag365
ag366
ag367
ag368
ag369
ag161
ag238
ag370
ag371
ag1643
ag1766
ag1767
ag1768
ag1722
ag925
ag260
ag261
ag354
asg829
(lp2567
g1469
ag1470
ag31
asg17
(lp2568
g829
ag1469
ag1470
ag227
ag243
asg924
(lp2569
g580
ag925
ag352
asg2553
(lp2570
g1761
ag562
ag667
ag668
ag669
ag670
ag671
ag672
ag673
ag674
asg1186
(lp2571
g981
ag235
ag335
ag214
ag1187
asg888
(lp2572
g1186
ag411
ag979
ag853
ag155
ag521
ag334
ag522
ag173
ag523
asg1999
(lp2573
g1161
ag1712
ag1081
ag1401
ag2000
asg1470
(lp2574
sg1371
(lp2575
g924
ag1965
ag1293
ag1129
ag301
asg1825
(lp2576
g1999
ag1161
ag1291
ag1826
ag972
ag1794
ag770
ag1827
aS'ODA'
p2577
asg523
(lp2578
g1187
ag1040
ag526
ag28
asg1976
(lp2579
sg995
(lp2580
g890
ag1602
ag183
ag435
asg75
(lp2581
g1120
ag1111
ag1116
ag1138
ag76
ag77
ag78
ag79
ag41
ag80
ag81
ag82
ag83
ag84
asg741
(lp2582
g214
ag1892
ag187
ag82
ag454
ag245
ag252
ag253
asg297
(lp2583
g1834
ag269
ag270
ag275
ag286
ag741
ag214
ag1892
ag298
ag299
ag300
ag301
ag302
ag339
ag340
ag341
asS'ODS'
p2584
(lp2585
g1976
ag874
ag1476
ag1551
asg269
(lp2586
g275
ag286
ag741
ag214
ag1892
ag146
ag44
ag45
ag806
ag807
ag808
asg275
(lp2587
g286
ag741
ag214
ag1892
ag276
ag277
ag278
ag279
ag280
ag65
ag822
ag823
ag824
ag825
asg286
(lp2588
g741
ag214
ag1892
ag134
ag177
ag287
ag288
asg317
(lp2589
g358
ag359
ag360
ag361
ag362
ag363
ag364
ag365
ag366
ag367
ag368
ag369
ag161
ag238
ag370
ag371
ag951
ag318
ag319
asg1892
(lp2590
g526
asg942
(lp2591
g243
ag174
asg371
(lp2592
g337
ag1174
ag1749
ag1310
ag1750
ag956
ag325
ag326
ag964
ag204
ag172
asg2577
(lp2593
g2531
ag2000
ag2584
ag1976
ag1008
ag1011
ag1012
ag975
ag771
ag772
asg330
(lp2594
g331
ag332
ag333
ag334
ag335
ag336
ag337
ag1636
ag103
ag743
ag744
ag745
ag64
ag275
ag822
ag823
ag824
ag825
asg2531
(lp2595
g2000
ag2584
ag1976
ag2247
aS'OLD'
p2596
ag2045
asg2000
(lp2597
g2584
ag1976
ag1281
ag1475
ag1479
ag992
ag1316
ag1317
asg214
(lp2598
g1892
ag215
ag1187
asg1254
(lp2599
g1247
ag1942
ag1944
ag1314
ag1255
asg797
(lp2600
g812
aS'FEI'
p2601
ag734
ag882
ag1490
ag1492
ag837
ag1493
ag461
ag498
ag499
ag798
ag799
ag800
ag801
ag595
ag802
ag803
ag804
ag805
ag269
ag270
ag806
ag807
ag808
asS'ELI'
p2602
(lp2603
g1254
ag1247
ag1942
ag1944
ag1314
asg1376
(lp2604
g1396
ag378
ag379
ag756
ag831
ag708
ag832
ag239
ag17
ag227
ag243
asg1247
(lp2605
g1942
ag1944
ag1314
ag1248
ag718
asg1381
(lp2606
g1376
ag1396
ag1382
ag1118
ag424
ag900
ag452
ag127
ag221
ag942
asg1285
(lp2607
S'ELD'
p2608
ag1275
ag2602
ag1254
ag1247
ag1942
ag1944
ag1314
asg1001
(lp2609
g1757
asg291
(lp2610
g590
ag560
ag230
ag168
ag603
ag136
asg1275
(lp2611
g2602
ag1254
ag1247
ag1942
ag1944
ag1314
asg126
(lp2612
g25
ag953
ag954
ag955
ag956
ag127
ag220
ag847
asg2608
(lp2613
g1275
ag2602
ag1254
ag1247
ag1942
ag1944
ag1314
ag1744
ag1397
ag2247
ag2596
asg2601
(lp2614
g734
ag882
ag1490
ag1492
ag837
ag1493
ag2289
ag579
ag1627
ag1909
ag1911
asg1492
(lp2615
g837
ag1493
ag1132
ag2086
ag1184
ag694
ag695
ag582
ag1186
ag235
ag335
ag214
ag1187
asg1634
(lp2616
g1204
ag1381
ag1376
ag1396
ag1096
ag480
ag893
ag902
ag842
ag744
ag745
ag280
asg1459
(lp2617
g1634
ag1204
ag1381
ag1376
ag1396
ag1092
ag499
ag490
ag761
ag762
ag763
ag640
ag42
ag144
ag644
asg1444
(lp2618
g1459
ag1634
ag1204
ag1381
ag1376
ag1396
ag1071
ag467
ag905
ag907
ag908
ag909
ag116
ag910
asg1509
(lp2619
g2529
ag1515
ag1516
ag1524
ag1531
ag1974
ag85
ag87
ag88
ag89
ag90
ag91
ag92
ag93
ag94
ag95
ag96
ag97
ag98
ag99
ag1825
ag2577
asg1524
(lp2620
g1531
ag1974
ag1
ag4
ag5
ag6
ag7
ag8
ag9
ag1278
ag1161
ag1287
asg1204
(lp2621
g1381
ag1376
ag1396
ag1428
ag1063
ag1205
ag510
ag511
ag898
ag541
ag542
ag914
ag843
ag844
ag193
ag915
ag916
asg2478
(lp2622
g836
ag1052
ag1492
ag2086
ag1184
ag694
ag695
ag582
ag1186
ag235
ag335
ag214
ag1187
asg1493
(lp2623
g2002
ag1892
ag526
asg1314
(lp2624
sg837
(lp2625
g1493
ag1308
ag2166
ag1192
ag838
ag839
ag840
ag663
ag337
ag249
asg135
(lp2626
g196
ag188
ag189
ag18
ag1464
ag34
ag911
ag179
ag136
asg784
(lp2627
g595
ag816
ag817
ag605
ag579
ag586
ag550
ag1883
ag707
ag713
ag684
ag1496
ag2479
ag694
ag695
ag659
ag663
ag1372
ag1373
ag786
ag787
ag788
ag327
ag297
ag339
ag340
ag341
asg1771
(lp2628
g702
ag1234
ag739
ag1782
ag862
ag873
ag887
ag1856
ag582
ag388
ag1090
ag904
ag1863
ag1864
ag1127
ag331
ag286
asg147
(lp2629
g135
ag196
ag188
ag189
ag18
ag1464
ag34
ag911
ag47
ag644
ag148
asg595
(lp2630
g816
ag817
ag605
ag579
ag586
ag550
ag1883
ag707
ag713
ag684
ag1496
ag2479
ag694
ag695
ag659
ag663
ag491
ag596
ag802
ag803
ag804
ag805
ag269
ag270
ag806
ag807
ag808
asg816
(lp2631
g605
ag579
ag586
ag550
ag1883
ag707
ag713
ag684
ag1496
ag2479
ag694
ag695
ag659
ag663
ag482
ag902
ag517
ag818
ag819
ag820
ag821
ag330
ag275
ag822
ag823
ag824
ag825
asg605
(lp2632
g579
ag586
ag550
ag1883
ag707
ag713
ag684
ag1496
ag2479
ag694
ag695
ag659
ag663
ag606
ag607
ag608
ag1771
ag1863
ag1864
ag1127
ag331
ag286
asg1234
(lp2633
g739
ag1782
ag862
ag873
ag887
ag1856
ag582
ag446
ag914
ag1235
asg579
(lp2634
g586
ag550
ag1883
ag707
ag713
ag684
ag1496
ag2479
ag694
ag695
ag659
ag663
ag580
ag1627
ag1909
ag1911
asg1782
(lp2635
g862
ag873
ag887
ag1856
ag582
ag614
ag1783
ag1628
ag1710
asg586
(lp2636
g550
ag1883
ag707
ag713
ag684
ag1496
ag2479
ag694
ag695
ag659
ag663
asg158
(lp2637
g159
ag205
ag1661
asg550
(lp2638
g1883
ag707
ag713
ag684
ag1496
ag2479
ag694
ag695
ag659
ag663
ag429
ag430
ag739
ag740
ag332
ag741
ag245
ag252
ag253
asg1883
(lp2639
g707
ag713
ag684
ag1496
ag2479
ag694
ag695
ag659
ag663
ag1521
ag1803
ag1815
ag1782
ag1628
ag1710
asg887
(lp2640
g1856
ag582
ag1303
ag888
ag889
ag155
ag521
ag334
ag522
ag173
ag523
asg707
(lp2641
g713
ag684
ag1496
ag2479
ag694
ag695
ag659
ag663
ag708
ag862
ag863
ag864
ag865
ag333
ag247
ag866
ag867
asg713
(lp2642
g684
ag1496
ag2479
ag694
ag695
ag659
ag663
ag714
ag715
ag873
ag874
ag875
ag248
ag876
asg684
(lp2643
g1496
ag2479
ag694
ag695
ag659
ag663
ag410
ag685
ag686
ag687
ag887
ag888
ag889
ag155
ag521
ag334
ag522
ag173
ag523
asg1496
(lp2644
g2479
ag694
ag695
ag659
ag663
ag1473
asg2479
(lp2645
g694
ag695
ag659
ag663
ag1558
ag1856
ag1083
asg694
(lp2646
g659
ag663
ag696
ag582
ag1186
ag235
ag335
ag214
ag1187
asg659
(lp2647
g663
ag660
ag661
ag1037
ag1085
ag336
ag1039
ag1040
asg663
(lp2648
g664
ag337
ag249
asg806
(lp2649
g823
ag1911
ag1235
ag245
ag247
ag248
ag173
ag249
ag147
ag47
ag644
ag807
ag808
asg34
(lp2650
g911
ag27
ag174
asg994
(lp2651
g995
ag854
asg782
(lp2652
g1422
ag1425
ag970
ag972
ag973
ag974
ag975
ag300
ag926
asg1580
(lp2653
g1730
ag1661
ag1581
asg302
(lp2654
g353
ag346
asg1450
(lp2655
g1170
ag1451
ag1939
ag463
ag472
ag382
ag388
ag389
ag390
ag391
ag104
ag134
ag135
ag136
asg969
(lp2656
g1494
ag1308
ag2181
ag1190
asg130
(lp2657
g29
ag131
asg1457
(lp2658
g1450
ag1170
ag1458
ag1459
ag1941
ag461
ag486
ag491
ag492
ag493
ag494
ag102
ag146
ag147
ag148
asg353
(lp2659
g346
asg346
(lp2660
sg1730
(lp2661
g1661
asg1661
(lp2662
sg1815
(lp2663
g346
asg1170
(lp2664
g1395
ag1396
ag1171
ag374
ag403
ag407
ag408
ag409
ag410
ag411
ag156
ag412
ag15
ag33
ag34
asg1405
(lp2665
g1300
ag1268
ag1454
aS'DAK'
p2666
ag1438
ag1429
ag1330
ag1331
aS'DAO'
p2667
ag1153
ag1356
ag1362
ag1346
ag1222
ag1941
ag1068
ag1092
ag1406
ag1407
ag1408
ag1409
ag591
ag597
ag598
ag599
ag600
ag256
ag296
ag271
ag272
ag273
asg1300
(lp2668
g1268
ag1454
ag2666
ag1438
ag1429
ag1330
ag1331
ag2667
ag1153
ag1356
ag1362
ag1346
ag1222
ag811
ag2323
ag1069
ag1096
ag515
ag1301
ag646
ag1302
ag258
ag281
asg953
(lp2669
g954
ag955
ag956
ag1724
ag1774
ag1469
ag1031
ag1032
asg1268
(lp2670
g1454
ag2666
ag1438
ag1429
ag1330
ag1331
ag2667
ag1153
ag1356
ag1362
ag1346
ag1222
ag1861
ag1939
ag1070
ag1087
ag1269
ag1270
ag1271
ag1272
ag593
ag609
ag610
ag611
ag356
ag259
ag289
ag290
ag291
asg1419
(lp2671
g1405
ag1300
ag1268
ag1454
ag2666
ag1438
ag1429
ag1330
ag1331
ag2667
ag1153
ag1356
ag1362
ag1346
ag1222
ag2490
aS'DEB'
p2672
ag1948
ag1065
ag2329
ag1071
ag1420
ag1421
ag621
ag625
ag626
ag627
ag628
ag629
ag294
ag295
ag630
asg1332
(lp2673
g1357
ag1388
ag67
ag69
ag1333
ag1334
ag1335
ag1336
ag1337
ag1338
ag1339
ag530
ag551
ag552
ag553
ag554
ag555
ag309
ag310
ag365
ag366
ag266
ag556
ag557
ag558
ag559
ag560
asg1438
(lp2674
g1429
ag1330
ag1331
ag2667
ag1153
ag1356
ag1362
ag1346
ag1222
ag749
ag1054
ag1439
ag1440
ag648
ag705
ag361
ag362
ag263
ag264
ag323
asg1429
(lp2675
g1330
ag1331
ag2667
ag1153
ag1356
ag1362
ag1346
ag1222
ag1935
ag1056
ag1063
ag1430
ag1431
ag1432
ag1433
ag1434
ag528
ag543
ag544
ag545
ag546
ag547
ag307
ag308
ag363
ag364
ag265
ag548
asg1330
(lp2676
g2667
ag1153
ag1356
ag1362
ag1346
ag1222
ag733
ag1933
ag1044
ag1057
ag1053
ag1332
ag1333
ag1334
ag1335
ag1336
ag1337
ag1338
ag1339
ag530
ag551
ag552
ag553
ag554
ag555
ag309
ag310
ag365
ag366
ag266
ag556
ag557
ag558
ag559
ag560
asg2667
(lp2677
g1153
ag1356
ag1362
ag1346
ag1222
ag1141
ag2053
ag1914
ag531
ag649
ag367
ag267
ag268
ag347
asg1454
(lp2678
g2666
ag1438
ag1429
ag1330
ag1331
ag2667
ag1153
ag1356
ag1362
ag1346
ag1222
ag1455
ag647
ag692
ag303
ag317
ag318
ag319
asg2666
(lp2679
g1438
ag1429
ag1330
ag1331
ag2667
ag1153
ag1356
ag1362
ag1346
ag1222
ag2052
ag577
ag578
ag587
ag588
ag360
ag589
ag590
asg290
(lp2680
g318
ag558
ag222
ag228
ag255
ag165
ag166
ag170
ag171
ag172
ag135
ag179
ag291
asg1346
(lp2681
g1222
ag2478
ag1052
ag1347
ag1348
ag1349
ag1350
ag537
ag570
ag584
ag152
ag237
ag238
ag202
ag170
ag216
asg1153
(lp2682
g1356
ag1362
ag1346
ag1222
ag2312
ag1046
ag1118
ag1154
ag1155
ag1156
ag1157
ag532
ag650
ag699
ag700
ag311
ag368
ag217
ag222
ag223
asg1356
(lp2683
g1362
ag1346
ag1222
ag1047
ag1048
ag1357
ag1358
ag1359
ag1360
ag533
ag534
ag651
ag652
ag709
ag710
ag711
ag369
ag219
ag228
ag229
ag230
asg1362
(lp2684
g1346
ag1222
ag1963
ag1049
ag1363
ag535
ag653
ag312
ag716
ag255
ag717
asg1357
(lp2685
g1388
ag858
ag1364
ag1358
ag1359
ag1360
ag533
ag534
ag651
ag652
ag709
ag710
ag711
ag369
ag219
ag228
ag229
ag230
asg1710
(lp2686
g1711
ag866
ag876
ag523
ag1187
ag1040
ag526
asg1388
(lp2687
g1763
ag1314
ag1389
ag1390
ag1391
ag1392
ag1393
ag536
ag654
ag655
ag688
ag689
ag149
ag690
ag160
ag161
ag162
ag163
ag164
ag165
ag166
ag167
ag168
asg1089
(lp2688
g1971
ag72
ag1119
ag1466
ag1133
ag2174
ag1617
ag894
ag386
ag606
ag1090
ag986
ag38
ag133
ag177
ag178
ag179
asg1093
(lp2689
g1097
ag1089
ag1971
ag72
ag1119
ag1466
ag1133
ag2174
ag1617
ag761
ag596
ag1094
ag984
ag987
ag35
ag988
ag43
ag44
ag45
ag46
ag47
asg1097
(lp2690
g1089
ag1971
ag72
ag1119
ag1466
ag1133
ag2174
ag1617
ag893
ag1098
ag1099
ag1100
ag1101
ag37
ag743
ag279
ag957
ag958
ag959
asg1368
(lp2691
sg811
(lp2692
g1861
ag749
ag733
ag2476
ag2478
ag836
ag2323
ag1069
ag1096
ag515
ag812
ag813
ag814
ag815
ag816
ag817
ag818
ag819
ag820
ag821
ag330
ag275
ag822
ag823
ag824
ag825
asg636
(lp2693
g600
ag356
ag317
ag358
ag359
ag360
ag361
ag362
ag363
ag364
ag365
ag366
ag367
ag368
ag369
ag161
ag238
ag370
ag371
ag329
ag100
ag110
ag638
ag639
asg72
(lp2694
g1119
ag1466
ag1133
ag2174
ag1617
ag899
ag73
ag74
ag75
ag76
ag77
ag78
ag79
ag41
ag80
ag81
ag82
ag83
ag84
asg638
(lp2695
g271
ag281
ag1675
ag290
ag318
ag558
ag222
ag228
ag255
ag165
ag166
ag170
ag171
ag172
ag639
asg2554
(lp2696
g2483
ag2485
ag1999
ag1712
ag1081
ag1401
asg1971
(lp2697
g72
ag1119
ag1466
ag1133
ag2174
ag1617
ag2032
ag896
ag1182
ag1341
ag1342
ag39
ag350
ag1343
asg16
(lp2698
sg1133
(lp2699
g2174
ag1617
ag1134
ag696
ag583
ag981
ag236
ag21
ag955
ag215
ag1135
ag848
ag949
asg1466
(lp2700
g1133
ag2174
ag1617
ag851
ag1189
ag685
ag686
ag1303
ag979
ag157
ag19
ag25
ag26
ag27
ag28
asg1911
(lp2701
g1235
ag245
ag247
ag248
ag173
ag249
asg1119
(lp2702
g1466
ag1133
ag2174
ag1617
ag900
ag941
ag1120
ag698
ag1121
ag1122
ag1123
ag126
ag220
ag847
asg812
(lp2703
g2601
ag734
ag882
ag1490
ag1492
ag837
ag1493
ag462
ag501
ag813
ag814
ag815
ag816
ag817
ag818
ag819
ag820
ag821
ag330
ag275
ag822
ag823
ag824
ag825
asg1292
(lp2704
g1282
ag718
ag720
ag1477
ag926
ag935
ag936
ag773
asg294
(lp2705
g256
ag296
ag258
ag259
ag260
ag261
ag262
ag263
ag264
ag265
ag266
ag267
ag268
ag217
ag219
ag162
ag163
ag200
ag201
ag202
ag203
ag204
ag117
ag910
ag630
asg2174
(lp2706
g1617
ag660
ag765
ag22
ag210
ag211
asg1617
(lp2707
g1595
ag664
ag1305
ag982
ag1021
ag23
ag956
ag182
ag849
ag1022
asg196
(lp2708
g188
ag189
ag18
ag1464
ag34
ag911
asg1187
(lp2709
g1040
ag526
ag949
asg1944
(lp2710
g1314
ag1746
ag1366
ag1368
asg702
(lp2711
g1234
ag739
ag1782
ag862
ag873
ag887
ag1856
ag582
ag703
ag704
ag752
ag753
asg253
(lp2712
g1737
ag867
asg822
(lp2713
g1909
ag522
ag1039
ag485
ag957
ag823
ag824
ag825
asg1162
(lp2714
g1015
ag1017
ag1018
ag1019
as.